                                      1 ;--------------------------------------------------------
                                      2 ; File Created by SDCC : free open source ANSI-C Compiler
                                      3 ; Version 4.0.0 #11528 (Linux)
                                      4 ;--------------------------------------------------------
                                      5 	.module disp
                                      6 	.optsdcc -mmcs51 --model-large
                                      7 	
                                      8 ;--------------------------------------------------------
                                      9 ; Public variables in this module
                                     10 ;--------------------------------------------------------
                                     11 	.globl _main
                                     12 	.globl _scroll
                                     13 	.globl _timer0_intr
                                     14 	.globl _init_disp
                                     15 	.globl _init_timer1
                                     16 	.globl _init_timer0
                                     17 	.globl _init_intr
                                     18 	.globl _gpo_clear
                                     19 	.globl _gpo_init
                                     20 	.globl _getchar_poll
                                     21 	.globl _getchar
                                     22 	.globl _putchar
                                     23 	.globl _toupper
                                     24 	.globl _strncpy
                                     25 	.globl _CY
                                     26 	.globl _AC
                                     27 	.globl _F0
                                     28 	.globl _RS1
                                     29 	.globl _RS0
                                     30 	.globl _OV
                                     31 	.globl _FL
                                     32 	.globl _P
                                     33 	.globl _TF2
                                     34 	.globl _EXF2
                                     35 	.globl _RCLK
                                     36 	.globl _TCLK
                                     37 	.globl _EXEN2
                                     38 	.globl _TR2
                                     39 	.globl _C_T2
                                     40 	.globl _CP_RL2
                                     41 	.globl _T2CON_7
                                     42 	.globl _T2CON_6
                                     43 	.globl _T2CON_5
                                     44 	.globl _T2CON_4
                                     45 	.globl _T2CON_3
                                     46 	.globl _T2CON_2
                                     47 	.globl _T2CON_1
                                     48 	.globl _T2CON_0
                                     49 	.globl _PT2
                                     50 	.globl _PS
                                     51 	.globl _PT1
                                     52 	.globl _PX1
                                     53 	.globl _PT0
                                     54 	.globl _PX0
                                     55 	.globl _RD
                                     56 	.globl _WR
                                     57 	.globl _T1
                                     58 	.globl _T0
                                     59 	.globl _INT1
                                     60 	.globl _INT0
                                     61 	.globl _TXD
                                     62 	.globl _RXD
                                     63 	.globl _P3_7
                                     64 	.globl _P3_6
                                     65 	.globl _P3_5
                                     66 	.globl _P3_4
                                     67 	.globl _P3_3
                                     68 	.globl _P3_2
                                     69 	.globl _P3_1
                                     70 	.globl _P3_0
                                     71 	.globl _EA
                                     72 	.globl _ET2
                                     73 	.globl _ES
                                     74 	.globl _ET1
                                     75 	.globl _EX1
                                     76 	.globl _ET0
                                     77 	.globl _EX0
                                     78 	.globl _P2_7
                                     79 	.globl _P2_6
                                     80 	.globl _P2_5
                                     81 	.globl _P2_4
                                     82 	.globl _P2_3
                                     83 	.globl _P2_2
                                     84 	.globl _P2_1
                                     85 	.globl _P2_0
                                     86 	.globl _SM0
                                     87 	.globl _SM1
                                     88 	.globl _SM2
                                     89 	.globl _REN
                                     90 	.globl _TB8
                                     91 	.globl _RB8
                                     92 	.globl _TI
                                     93 	.globl _RI
                                     94 	.globl _T2EX
                                     95 	.globl _T2
                                     96 	.globl _P1_7
                                     97 	.globl _P1_6
                                     98 	.globl _P1_5
                                     99 	.globl _P1_4
                                    100 	.globl _P1_3
                                    101 	.globl _P1_2
                                    102 	.globl _P1_1
                                    103 	.globl _P1_0
                                    104 	.globl _TF1
                                    105 	.globl _TR1
                                    106 	.globl _TF0
                                    107 	.globl _TR0
                                    108 	.globl _IE1
                                    109 	.globl _IT1
                                    110 	.globl _IE0
                                    111 	.globl _IT0
                                    112 	.globl _P0_7
                                    113 	.globl _P0_6
                                    114 	.globl _P0_5
                                    115 	.globl _P0_4
                                    116 	.globl _P0_3
                                    117 	.globl _P0_2
                                    118 	.globl _P0_1
                                    119 	.globl _P0_0
                                    120 	.globl _B
                                    121 	.globl _A
                                    122 	.globl _ACC
                                    123 	.globl _PSW
                                    124 	.globl _TH2
                                    125 	.globl _TL2
                                    126 	.globl _RCAP2H
                                    127 	.globl _RCAP2L
                                    128 	.globl _T2MOD
                                    129 	.globl _T2CON
                                    130 	.globl _IP
                                    131 	.globl _P3
                                    132 	.globl _IE
                                    133 	.globl _P2
                                    134 	.globl _SBUF
                                    135 	.globl _SCON
                                    136 	.globl _P1
                                    137 	.globl _TH1
                                    138 	.globl _TH0
                                    139 	.globl _TL1
                                    140 	.globl _TL0
                                    141 	.globl _TMOD
                                    142 	.globl _TCON
                                    143 	.globl _PCON
                                    144 	.globl _DPH
                                    145 	.globl _DPL
                                    146 	.globl _SP
                                    147 	.globl _P0
                                    148 	.globl _gpo
                                    149 	.globl _inv
                                    150 	.globl _OE
                                    151 	.globl _column
                                    152 	.globl _ddata
                                    153 	.globl _sddcol
                                    154 	.globl _dsdcol
                                    155 ;--------------------------------------------------------
                                    156 ; special function registers
                                    157 ;--------------------------------------------------------
                                    158 	.area RSEG    (ABS,DATA)
      000000                        159 	.org 0x0000
                           000080   160 _P0	=	0x0080
                           000081   161 _SP	=	0x0081
                           000082   162 _DPL	=	0x0082
                           000083   163 _DPH	=	0x0083
                           000087   164 _PCON	=	0x0087
                           000088   165 _TCON	=	0x0088
                           000089   166 _TMOD	=	0x0089
                           00008A   167 _TL0	=	0x008a
                           00008B   168 _TL1	=	0x008b
                           00008C   169 _TH0	=	0x008c
                           00008D   170 _TH1	=	0x008d
                           000090   171 _P1	=	0x0090
                           000098   172 _SCON	=	0x0098
                           000099   173 _SBUF	=	0x0099
                           0000A0   174 _P2	=	0x00a0
                           0000A8   175 _IE	=	0x00a8
                           0000B0   176 _P3	=	0x00b0
                           0000B8   177 _IP	=	0x00b8
                           0000C8   178 _T2CON	=	0x00c8
                           0000C9   179 _T2MOD	=	0x00c9
                           0000CA   180 _RCAP2L	=	0x00ca
                           0000CB   181 _RCAP2H	=	0x00cb
                           0000CC   182 _TL2	=	0x00cc
                           0000CD   183 _TH2	=	0x00cd
                           0000D0   184 _PSW	=	0x00d0
                           0000E0   185 _ACC	=	0x00e0
                           0000E0   186 _A	=	0x00e0
                           0000F0   187 _B	=	0x00f0
                                    188 ;--------------------------------------------------------
                                    189 ; special function bits
                                    190 ;--------------------------------------------------------
                                    191 	.area RSEG    (ABS,DATA)
      000000                        192 	.org 0x0000
                           000080   193 _P0_0	=	0x0080
                           000081   194 _P0_1	=	0x0081
                           000082   195 _P0_2	=	0x0082
                           000083   196 _P0_3	=	0x0083
                           000084   197 _P0_4	=	0x0084
                           000085   198 _P0_5	=	0x0085
                           000086   199 _P0_6	=	0x0086
                           000087   200 _P0_7	=	0x0087
                           000088   201 _IT0	=	0x0088
                           000089   202 _IE0	=	0x0089
                           00008A   203 _IT1	=	0x008a
                           00008B   204 _IE1	=	0x008b
                           00008C   205 _TR0	=	0x008c
                           00008D   206 _TF0	=	0x008d
                           00008E   207 _TR1	=	0x008e
                           00008F   208 _TF1	=	0x008f
                           000090   209 _P1_0	=	0x0090
                           000091   210 _P1_1	=	0x0091
                           000092   211 _P1_2	=	0x0092
                           000093   212 _P1_3	=	0x0093
                           000094   213 _P1_4	=	0x0094
                           000095   214 _P1_5	=	0x0095
                           000096   215 _P1_6	=	0x0096
                           000097   216 _P1_7	=	0x0097
                           000090   217 _T2	=	0x0090
                           000091   218 _T2EX	=	0x0091
                           000098   219 _RI	=	0x0098
                           000099   220 _TI	=	0x0099
                           00009A   221 _RB8	=	0x009a
                           00009B   222 _TB8	=	0x009b
                           00009C   223 _REN	=	0x009c
                           00009D   224 _SM2	=	0x009d
                           00009E   225 _SM1	=	0x009e
                           00009F   226 _SM0	=	0x009f
                           0000A0   227 _P2_0	=	0x00a0
                           0000A1   228 _P2_1	=	0x00a1
                           0000A2   229 _P2_2	=	0x00a2
                           0000A3   230 _P2_3	=	0x00a3
                           0000A4   231 _P2_4	=	0x00a4
                           0000A5   232 _P2_5	=	0x00a5
                           0000A6   233 _P2_6	=	0x00a6
                           0000A7   234 _P2_7	=	0x00a7
                           0000A8   235 _EX0	=	0x00a8
                           0000A9   236 _ET0	=	0x00a9
                           0000AA   237 _EX1	=	0x00aa
                           0000AB   238 _ET1	=	0x00ab
                           0000AC   239 _ES	=	0x00ac
                           0000AD   240 _ET2	=	0x00ad
                           0000AF   241 _EA	=	0x00af
                           0000B0   242 _P3_0	=	0x00b0
                           0000B1   243 _P3_1	=	0x00b1
                           0000B2   244 _P3_2	=	0x00b2
                           0000B3   245 _P3_3	=	0x00b3
                           0000B4   246 _P3_4	=	0x00b4
                           0000B5   247 _P3_5	=	0x00b5
                           0000B6   248 _P3_6	=	0x00b6
                           0000B7   249 _P3_7	=	0x00b7
                           0000B0   250 _RXD	=	0x00b0
                           0000B1   251 _TXD	=	0x00b1
                           0000B2   252 _INT0	=	0x00b2
                           0000B3   253 _INT1	=	0x00b3
                           0000B4   254 _T0	=	0x00b4
                           0000B5   255 _T1	=	0x00b5
                           0000B6   256 _WR	=	0x00b6
                           0000B7   257 _RD	=	0x00b7
                           0000B8   258 _PX0	=	0x00b8
                           0000B9   259 _PT0	=	0x00b9
                           0000BA   260 _PX1	=	0x00ba
                           0000BB   261 _PT1	=	0x00bb
                           0000BC   262 _PS	=	0x00bc
                           0000BD   263 _PT2	=	0x00bd
                           0000C8   264 _T2CON_0	=	0x00c8
                           0000C9   265 _T2CON_1	=	0x00c9
                           0000CA   266 _T2CON_2	=	0x00ca
                           0000CB   267 _T2CON_3	=	0x00cb
                           0000CC   268 _T2CON_4	=	0x00cc
                           0000CD   269 _T2CON_5	=	0x00cd
                           0000CE   270 _T2CON_6	=	0x00ce
                           0000CF   271 _T2CON_7	=	0x00cf
                           0000C8   272 _CP_RL2	=	0x00c8
                           0000C9   273 _C_T2	=	0x00c9
                           0000CA   274 _TR2	=	0x00ca
                           0000CB   275 _EXEN2	=	0x00cb
                           0000CC   276 _TCLK	=	0x00cc
                           0000CD   277 _RCLK	=	0x00cd
                           0000CE   278 _EXF2	=	0x00ce
                           0000CF   279 _TF2	=	0x00cf
                           0000D0   280 _P	=	0x00d0
                           0000D1   281 _FL	=	0x00d1
                           0000D2   282 _OV	=	0x00d2
                           0000D3   283 _RS0	=	0x00d3
                           0000D4   284 _RS1	=	0x00d4
                           0000D5   285 _F0	=	0x00d5
                           0000D6   286 _AC	=	0x00d6
                           0000D7   287 _CY	=	0x00d7
                                    288 ;--------------------------------------------------------
                                    289 ; overlayable register banks
                                    290 ;--------------------------------------------------------
                                    291 	.area REG_BANK_0	(REL,OVR,DATA)
      000000                        292 	.ds 8
                                    293 	.area REG_BANK_1	(REL,OVR,DATA)
      000000                        294 	.ds 8
                                    295 ;--------------------------------------------------------
                                    296 ; internal ram data
                                    297 ;--------------------------------------------------------
                                    298 	.area DSEG    (DATA)
                                    299 ;--------------------------------------------------------
                                    300 ; overlayable items in internal ram 
                                    301 ;--------------------------------------------------------
                                    302 ;--------------------------------------------------------
                                    303 ; Stack segment in internal ram 
                                    304 ;--------------------------------------------------------
                                    305 	.area	SSEG
      000000                        306 __start__stack:
      000000                        307 	.ds	1
                                    308 
                                    309 ;--------------------------------------------------------
                                    310 ; indirectly addressable internal ram data
                                    311 ;--------------------------------------------------------
                                    312 	.area ISEG    (DATA)
      000000                        313 _dsdcol::
      000000                        314 	.ds 8
      000008                        315 _sddcol::
      000008                        316 	.ds 8
      000010                        317 _ddata::
      000010                        318 	.ds 8
      000018                        319 _column::
      000018                        320 	.ds 1
      000019                        321 _OE::
      000019                        322 	.ds 1
      00001A                        323 _inv::
      00001A                        324 	.ds 1
                                    325 ;--------------------------------------------------------
                                    326 ; absolute internal ram data
                                    327 ;--------------------------------------------------------
                                    328 	.area IABS    (ABS,DATA)
                                    329 	.area IABS    (ABS,DATA)
                                    330 ;--------------------------------------------------------
                                    331 ; bit data
                                    332 ;--------------------------------------------------------
                                    333 	.area BSEG    (BIT)
                                    334 ;--------------------------------------------------------
                                    335 ; paged external ram data
                                    336 ;--------------------------------------------------------
                                    337 	.area PSEG    (PAG,XDATA)
                           000000   338 _gpo	=	0x0000
                                    339 ;--------------------------------------------------------
                                    340 ; external ram data
                                    341 ;--------------------------------------------------------
                                    342 	.area XSEG    (XDATA)
      000000                        343 _buf:
      000000                        344 	.ds 257
                                    345 ;--------------------------------------------------------
                                    346 ; absolute external ram data
                                    347 ;--------------------------------------------------------
                                    348 	.area XABS    (ABS,XDATA)
                                    349 ;--------------------------------------------------------
                                    350 ; external initialized ram data
                                    351 ;--------------------------------------------------------
                                    352 	.area XISEG   (XDATA)
      000000                        353 __ft_font6x8:
      000000                        354 	.ds 2048
      000800                        355 _initial:
      000800                        356 	.ds 3
                                    357 	.area HOME    (CODE)
                                    358 	.area GSINIT0 (CODE)
                                    359 	.area GSINIT1 (CODE)
                                    360 	.area GSINIT2 (CODE)
                                    361 	.area GSINIT3 (CODE)
                                    362 	.area GSINIT4 (CODE)
                                    363 	.area GSINIT5 (CODE)
                                    364 	.area GSINIT  (CODE)
                                    365 	.area GSFINAL (CODE)
                                    366 	.area CSEG    (CODE)
                                    367 ;--------------------------------------------------------
                                    368 ; interrupt vector 
                                    369 ;--------------------------------------------------------
                                    370 	.area HOME    (CODE)
      000000                        371 __interrupt_vect:
      000000 02r00r00         [24]  372 	ljmp	__sdcc_gsinit_startup
      000003 32               [24]  373 	reti
      000004                        374 	.ds	7
      00000B 02r00r8E         [24]  375 	ljmp	_timer0_intr
                                    376 ;--------------------------------------------------------
                                    377 ; global & static initialisations
                                    378 ;--------------------------------------------------------
                                    379 	.area HOME    (CODE)
                                    380 	.area GSINIT  (CODE)
                                    381 	.area GSFINAL (CODE)
                                    382 	.area GSINIT  (CODE)
                                    383 	.globl __sdcc_gsinit_startup
                                    384 	.globl __sdcc_program_startup
                                    385 	.globl __start__stack
                                    386 	.globl __mcs51_genXINIT
                                    387 	.globl __mcs51_genXRAMCLEAR
                                    388 	.globl __mcs51_genRAMCLEAR
                                    389 ;	disp.c:88: __idata const uint8_t dsdcol[8] = {
      000000 78r00            [12]  390 	mov	r0,#_dsdcol
      000002 76 80            [12]  391 	mov	@r0,#0x80
      000004 78r01            [12]  392 	mov	r0,#(_dsdcol + 0x0001)
      000006 76 40            [12]  393 	mov	@r0,#0x40
      000008 78r02            [12]  394 	mov	r0,#(_dsdcol + 0x0002)
      00000A 76 20            [12]  395 	mov	@r0,#0x20
      00000C 78r03            [12]  396 	mov	r0,#(_dsdcol + 0x0003)
      00000E 76 10            [12]  397 	mov	@r0,#0x10
      000010 78r04            [12]  398 	mov	r0,#(_dsdcol + 0x0004)
      000012 76 08            [12]  399 	mov	@r0,#0x08
      000014 78r05            [12]  400 	mov	r0,#(_dsdcol + 0x0005)
      000016 76 04            [12]  401 	mov	@r0,#0x04
      000018 78r06            [12]  402 	mov	r0,#(_dsdcol + 0x0006)
      00001A 76 02            [12]  403 	mov	@r0,#0x02
      00001C 78r07            [12]  404 	mov	r0,#(_dsdcol + 0x0007)
      00001E 76 01            [12]  405 	mov	@r0,#0x01
                                    406 ;	disp.c:92: __idata const uint8_t sddcol[8] = {
      000020 78r08            [12]  407 	mov	r0,#_sddcol
      000022 76 01            [12]  408 	mov	@r0,#0x01
      000024 78r09            [12]  409 	mov	r0,#(_sddcol + 0x0001)
      000026 76 02            [12]  410 	mov	@r0,#0x02
      000028 78r0A            [12]  411 	mov	r0,#(_sddcol + 0x0002)
      00002A 76 04            [12]  412 	mov	@r0,#0x04
      00002C 78r0B            [12]  413 	mov	r0,#(_sddcol + 0x0003)
      00002E 76 08            [12]  414 	mov	@r0,#0x08
      000030 78r0C            [12]  415 	mov	r0,#(_sddcol + 0x0004)
      000032 76 10            [12]  416 	mov	@r0,#0x10
      000034 78r0D            [12]  417 	mov	r0,#(_sddcol + 0x0005)
      000036 76 20            [12]  418 	mov	@r0,#0x20
      000038 78r0E            [12]  419 	mov	r0,#(_sddcol + 0x0006)
      00003A 76 40            [12]  420 	mov	@r0,#0x40
      00003C 78r0F            [12]  421 	mov	r0,#(_sddcol + 0x0007)
      00003E 76 80            [12]  422 	mov	@r0,#0x80
                                    423 	.area GSFINAL (CODE)
      000000 02r00r0E         [24]  424 	ljmp	__sdcc_program_startup
                                    425 ;--------------------------------------------------------
                                    426 ; Home
                                    427 ;--------------------------------------------------------
                                    428 	.area HOME    (CODE)
                                    429 	.area HOME    (CODE)
      00000E                        430 __sdcc_program_startup:
      00000E 02r02r83         [24]  431 	ljmp	_main
                                    432 ;	return from main will return to caller
                                    433 ;--------------------------------------------------------
                                    434 ; code
                                    435 ;--------------------------------------------------------
                                    436 	.area CSEG    (CODE)
                                    437 ;------------------------------------------------------------
                                    438 ;Allocation info for local variables in function 'gpo_init'
                                    439 ;------------------------------------------------------------
                                    440 ;	disp.c:47: void gpo_init(void) {
                                    441 ;	-----------------------------------------
                                    442 ;	 function gpo_init
                                    443 ;	-----------------------------------------
      000000                        444 _gpo_init:
                           000007   445 	ar7 = 0x07
                           000006   446 	ar6 = 0x06
                           000005   447 	ar5 = 0x05
                           000004   448 	ar4 = 0x04
                           000003   449 	ar3 = 0x03
                           000002   450 	ar2 = 0x02
                           000001   451 	ar1 = 0x01
                           000000   452 	ar0 = 0x00
                                    453 ;	disp.c:48: P1_7 = 0;
                                    454 ;	assignBit
      000000 C2 97            [12]  455 	clr	_P1_7
                                    456 ;	disp.c:53: __endasm;
      000002 00               [12]  457 	nop
      000003 00               [12]  458 	nop
      000004 00               [12]  459 	nop
                                    460 ;	disp.c:55: P2 = GPO_BASE_H;
      000005 75 A0 F0         [24]  461 	mov	_P2,#0xf0
                                    462 ;	disp.c:57: GPO_CLEAR;
      000008 78 06            [12]  463 	mov	r0,#(_gpo + 0x0006)
      00000A 74 3F            [12]  464 	mov	a,#0x3f
      00000C F2               [24]  465 	movx	@r0,a
      00000D 78 00            [12]  466 	mov	r0,#_gpo
      00000F E4               [12]  467 	clr	a
      000010 F2               [24]  468 	movx	@r0,a
      000011 78 01            [12]  469 	mov	r0,#(_gpo + 0x0001)
      000013 F2               [24]  470 	movx	@r0,a
      000014 78 02            [12]  471 	mov	r0,#(_gpo + 0x0002)
      000016 F2               [24]  472 	movx	@r0,a
      000017 78 03            [12]  473 	mov	r0,#(_gpo + 0x0003)
      000019 F2               [24]  474 	movx	@r0,a
      00001A 78 04            [12]  475 	mov	r0,#(_gpo + 0x0004)
      00001C F2               [24]  476 	movx	@r0,a
      00001D 78 05            [12]  477 	mov	r0,#(_gpo + 0x0005)
      00001F F2               [24]  478 	movx	@r0,a
                                    479 ;	disp.c:59: return;
                                    480 ;	disp.c:60: }
      000020 22               [24]  481 	ret
                                    482 ;------------------------------------------------------------
                                    483 ;Allocation info for local variables in function 'gpo_clear'
                                    484 ;------------------------------------------------------------
                                    485 ;	disp.c:62: void gpo_clear(void) {
                                    486 ;	-----------------------------------------
                                    487 ;	 function gpo_clear
                                    488 ;	-----------------------------------------
      000021                        489 _gpo_clear:
                                    490 ;	disp.c:63: GPO_CLEAR;
      000021 78 06            [12]  491 	mov	r0,#(_gpo + 0x0006)
      000023 74 3F            [12]  492 	mov	a,#0x3f
      000025 F2               [24]  493 	movx	@r0,a
      000026 78 00            [12]  494 	mov	r0,#_gpo
      000028 E4               [12]  495 	clr	a
      000029 F2               [24]  496 	movx	@r0,a
      00002A 78 01            [12]  497 	mov	r0,#(_gpo + 0x0001)
      00002C F2               [24]  498 	movx	@r0,a
      00002D 78 02            [12]  499 	mov	r0,#(_gpo + 0x0002)
      00002F F2               [24]  500 	movx	@r0,a
      000030 78 03            [12]  501 	mov	r0,#(_gpo + 0x0003)
      000032 F2               [24]  502 	movx	@r0,a
      000033 78 04            [12]  503 	mov	r0,#(_gpo + 0x0004)
      000035 F2               [24]  504 	movx	@r0,a
      000036 78 05            [12]  505 	mov	r0,#(_gpo + 0x0005)
      000038 F2               [24]  506 	movx	@r0,a
                                    507 ;	disp.c:65: return;
                                    508 ;	disp.c:66: }
      000039 22               [24]  509 	ret
                                    510 ;------------------------------------------------------------
                                    511 ;Allocation info for local variables in function 'init_intr'
                                    512 ;------------------------------------------------------------
                                    513 ;	disp.c:100: void init_intr(void) {
                                    514 ;	-----------------------------------------
                                    515 ;	 function init_intr
                                    516 ;	-----------------------------------------
      00003A                        517 _init_intr:
                                    518 ;	disp.c:101: TR0 = 0;
                                    519 ;	assignBit
      00003A C2 8C            [12]  520 	clr	_TR0
                                    521 ;	disp.c:102: TR1 = 0;
                                    522 ;	assignBit
      00003C C2 8E            [12]  523 	clr	_TR1
                                    524 ;	disp.c:103: ET0 = 1;
                                    525 ;	assignBit
      00003E D2 A9            [12]  526 	setb	_ET0
                                    527 ;	disp.c:104: ET1 = 0;
                                    528 ;	assignBit
      000040 C2 AB            [12]  529 	clr	_ET1
                                    530 ;	disp.c:105: EA = 1;
                                    531 ;	assignBit
      000042 D2 AF            [12]  532 	setb	_EA
                                    533 ;	disp.c:107: return;
                                    534 ;	disp.c:108: }
      000044 22               [24]  535 	ret
                                    536 ;------------------------------------------------------------
                                    537 ;Allocation info for local variables in function 'init_timer0'
                                    538 ;------------------------------------------------------------
                                    539 ;	disp.c:110: void init_timer0(void) {
                                    540 ;	-----------------------------------------
                                    541 ;	 function init_timer0
                                    542 ;	-----------------------------------------
      000045                        543 _init_timer0:
                                    544 ;	disp.c:111: TR0 = 0;
                                    545 ;	assignBit
      000045 C2 8C            [12]  546 	clr	_TR0
                                    547 ;	disp.c:112: TMOD |= 0x01;
      000047 43 89 01         [24]  548 	orl	_TMOD,#0x01
                                    549 ;	disp.c:113: TH0 = TR0_COUNT >> 8;
      00004A 75 8C F8         [24]  550 	mov	_TH0,#0xf8
                                    551 ;	disp.c:114: TL0 = TR0_COUNT & 0xffu;
      00004D 75 8A 00         [24]  552 	mov	_TL0,#0x00
                                    553 ;	disp.c:116: return;
                                    554 ;	disp.c:117: }
      000050 22               [24]  555 	ret
                                    556 ;------------------------------------------------------------
                                    557 ;Allocation info for local variables in function 'init_timer1'
                                    558 ;------------------------------------------------------------
                                    559 ;	disp.c:119: void init_timer1(void) {
                                    560 ;	-----------------------------------------
                                    561 ;	 function init_timer1
                                    562 ;	-----------------------------------------
      000051                        563 _init_timer1:
                                    564 ;	disp.c:120: TR1 = 0;
                                    565 ;	assignBit
      000051 C2 8E            [12]  566 	clr	_TR1
                                    567 ;	disp.c:121: TMOD |= 0x10;
      000053 43 89 10         [24]  568 	orl	_TMOD,#0x10
                                    569 ;	disp.c:122: TH1 = TR1_COUNT_0 >> 8;
      000056 75 8D 00         [24]  570 	mov	_TH1,#0x00
                                    571 ;	disp.c:123: TL1 = TR1_COUNT_0 & 0xffu;
      000059 75 8B 00         [24]  572 	mov	_TL1,#0x00
                                    573 ;	disp.c:125: return;
                                    574 ;	disp.c:126: }
      00005C 22               [24]  575 	ret
                                    576 ;------------------------------------------------------------
                                    577 ;Allocation info for local variables in function 'init_disp'
                                    578 ;------------------------------------------------------------
                                    579 ;	disp.c:128: void init_disp(void) {
                                    580 ;	-----------------------------------------
                                    581 ;	 function init_disp
                                    582 ;	-----------------------------------------
      00005D                        583 _init_disp:
                                    584 ;	disp.c:129: GPO_SETREG(DISP_COL, 0u);
      00005D 78 05            [12]  585 	mov	r0,#(_gpo + 0x0005)
      00005F E4               [12]  586 	clr	a
      000060 F2               [24]  587 	movx	@r0,a
                                    588 ;	disp.c:130: GPO_SETREG(DISP_DATA, 0u);
      000061 78 04            [12]  589 	mov	r0,#(_gpo + 0x0004)
      000063 F2               [24]  590 	movx	@r0,a
                                    591 ;	disp.c:131: OE = 0x0fu; /* 00_001111 */
      000064 78r19            [12]  592 	mov	r0,#_OE
      000066 76 0F            [12]  593 	mov	@r0,#0x0f
                                    594 ;	disp.c:132: GPO_SETOE(OE);
      000068 78 06            [12]  595 	mov	r0,#(_gpo + 0x0006)
      00006A 74 0F            [12]  596 	mov	a,#0x0f
      00006C F2               [24]  597 	movx	@r0,a
                                    598 ;	disp.c:134: for (column = 0u; column < 8u; column++)
      00006D 78r18            [12]  599 	mov	r0,#_column
      00006F 76 00            [12]  600 	mov	@r0,#0x00
      000071                        601 00112$:
      000071 78r18            [12]  602 	mov	r0,#_column
      000073 B6 08 00         [24]  603 	cjne	@r0,#0x08,00124$
      000076                        604 00124$:
      000076 50 11            [24]  605 	jnc	00110$
                                    606 ;	disp.c:135: ddata[column] = 0u;
      000078 78r18            [12]  607 	mov	r0,#_column
      00007A E6               [12]  608 	mov	a,@r0
      00007B 24r10            [12]  609 	add	a,#_ddata
      00007D F8               [12]  610 	mov	r0,a
      00007E 76 00            [12]  611 	mov	@r0,#0x00
                                    612 ;	disp.c:134: for (column = 0u; column < 8u; column++)
      000080 78r18            [12]  613 	mov	r0,#_column
      000082 E6               [12]  614 	mov	a,@r0
      000083 78r18            [12]  615 	mov	r0,#_column
      000085 04               [12]  616 	inc	a
      000086 F6               [12]  617 	mov	@r0,a
      000087 80 E8            [24]  618 	sjmp	00112$
      000089                        619 00110$:
                                    620 ;	disp.c:136: column = 0u;
      000089 78r18            [12]  621 	mov	r0,#_column
      00008B 76 00            [12]  622 	mov	@r0,#0x00
                                    623 ;	disp.c:138: return;
                                    624 ;	disp.c:139: }
      00008D 22               [24]  625 	ret
                                    626 ;------------------------------------------------------------
                                    627 ;Allocation info for local variables in function 'timer0_intr'
                                    628 ;------------------------------------------------------------
                                    629 ;t                         Allocated to registers r7 
                                    630 ;------------------------------------------------------------
                                    631 ;	disp.c:141: void timer0_intr(void) __interrupt TF0_VECTOR __using 1 {
                                    632 ;	-----------------------------------------
                                    633 ;	 function timer0_intr
                                    634 ;	-----------------------------------------
      00008E                        635 _timer0_intr:
                           00000F   636 	ar7 = 0x0f
                           00000E   637 	ar6 = 0x0e
                           00000D   638 	ar5 = 0x0d
                           00000C   639 	ar4 = 0x0c
                           00000B   640 	ar3 = 0x0b
                           00000A   641 	ar2 = 0x0a
                           000009   642 	ar1 = 0x09
                           000008   643 	ar0 = 0x08
      00008E C0 E0            [24]  644 	push	acc
      000090 C0 D0            [24]  645 	push	psw
      000092 75 D0 08         [24]  646 	mov	psw,#0x08
                                    647 ;	disp.c:144: t = column & 7u;
      000095 78r18            [12]  648 	mov	r0,#_column
      000097 86 0F            [24]  649 	mov	ar7,@r0
      000099 53 0F 07         [24]  650 	anl	ar7,#0x07
                                    651 ;	disp.c:145: GPO_SETREG(DISP_COL, 0u);
      00009C 78 05            [12]  652 	mov	r0,#(_gpo + 0x0005)
      00009E E4               [12]  653 	clr	a
      00009F F2               [24]  654 	movx	@r0,a
                                    655 ;	disp.c:146: GPO_SETREG(DISP_DATA, ddata[t]);
      0000A0 EF               [12]  656 	mov	a,r7
      0000A1 24r10            [12]  657 	add	a,#_ddata
      0000A3 F9               [12]  658 	mov	r1,a
      0000A4 87 0E            [24]  659 	mov	ar6,@r1
      0000A6 78 04            [12]  660 	mov	r0,#(_gpo + 0x0004)
      0000A8 EE               [12]  661 	mov	a,r6
      0000A9 F2               [24]  662 	movx	@r0,a
                                    663 ;	disp.c:147: GPO_SETREG(DISP_COL, dsdcol[t]);
      0000AA EF               [12]  664 	mov	a,r7
      0000AB 24r00            [12]  665 	add	a,#_dsdcol
      0000AD F9               [12]  666 	mov	r1,a
      0000AE 87 0F            [24]  667 	mov	ar7,@r1
      0000B0 78 05            [12]  668 	mov	r0,#(_gpo + 0x0005)
      0000B2 EF               [12]  669 	mov	a,r7
      0000B3 F2               [24]  670 	movx	@r0,a
                                    671 ;	disp.c:148: column++;
      0000B4 78r18            [12]  672 	mov	r0,#_column
      0000B6 E6               [12]  673 	mov	a,@r0
      0000B7 78r18            [12]  674 	mov	r0,#_column
      0000B9 04               [12]  675 	inc	a
      0000BA F6               [12]  676 	mov	@r0,a
                                    677 ;	disp.c:150: TR0 = 0;
                                    678 ;	assignBit
      0000BB C2 8C            [12]  679 	clr	_TR0
                                    680 ;	disp.c:151: TH0 = TR0_COUNT >> 8;
      0000BD 75 8C F8         [24]  681 	mov	_TH0,#0xf8
                                    682 ;	disp.c:152: TL0 = TR0_COUNT & 0xffu;
      0000C0 75 8A 00         [24]  683 	mov	_TL0,#0x00
                                    684 ;	disp.c:153: TR0 = 1;
                                    685 ;	assignBit
      0000C3 D2 8C            [12]  686 	setb	_TR0
                                    687 ;	disp.c:155: return;
                                    688 ;	disp.c:156: }
      0000C5 D0 D0            [24]  689 	pop	psw
      0000C7 D0 E0            [24]  690 	pop	acc
      0000C9 32               [24]  691 	reti
                                    692 ;	eliminated unneeded push/pop dpl
                                    693 ;	eliminated unneeded push/pop dph
                                    694 ;	eliminated unneeded push/pop b
                                    695 ;------------------------------------------------------------
                                    696 ;Allocation info for local variables in function 'scroll'
                                    697 ;------------------------------------------------------------
                                    698 ;msg                       Allocated to stack - _bp +1
                                    699 ;symbol                    Allocated to stack - _bp +5
                                    700 ;bit                       Allocated to stack - _bp +6
                                    701 ;i                         Allocated to stack - _bp +7
                                    702 ;j                         Allocated to registers r4 
                                    703 ;r                         Allocated to registers r3 r4 
                                    704 ;__3932160002              Allocated to registers 
                                    705 ;s                         Allocated to registers r6 r4 r3 
                                    706 ;sloc0                     Allocated to stack - _bp +4
                                    707 ;sloc1                     Allocated to stack - _bp +18
                                    708 ;sloc2                     Allocated to stack - _bp +19
                                    709 ;------------------------------------------------------------
                                    710 ;	disp.c:183: int scroll(uint8_t *msg) {
                                    711 ;	-----------------------------------------
                                    712 ;	 function scroll
                                    713 ;	-----------------------------------------
      0000CA                        714 _scroll:
                           000007   715 	ar7 = 0x07
                           000006   716 	ar6 = 0x06
                           000005   717 	ar5 = 0x05
                           000004   718 	ar4 = 0x04
                           000003   719 	ar3 = 0x03
                           000002   720 	ar2 = 0x02
                           000001   721 	ar1 = 0x01
                           000000   722 	ar0 = 0x00
      0000CA C0*00            [24]  723 	push	_bp
      0000CC 85 81*00         [24]  724 	mov	_bp,sp
      0000CF C0 82            [24]  725 	push	dpl
      0000D1 C0 83            [24]  726 	push	dph
      0000D3 C0 F0            [24]  727 	push	b
      0000D5 E5 81            [12]  728 	mov	a,sp
      0000D7 24 05            [12]  729 	add	a,#0x05
      0000D9 F5 81            [12]  730 	mov	sp,a
                                    731 ;	disp.c:189: for (bit = 0u, i = 0u; ; bit = (bit + 1u) & 0x07u) {
      0000DB E5*00            [12]  732 	mov	a,_bp
      0000DD 24 06            [12]  733 	add	a,#0x06
      0000DF F8               [12]  734 	mov	r0,a
      0000E0 76 00            [12]  735 	mov	@r0,#0x00
      0000E2 E5*00            [12]  736 	mov	a,_bp
      0000E4 24 07            [12]  737 	add	a,#0x07
      0000E6 F8               [12]  738 	mov	r0,a
      0000E7 E4               [12]  739 	clr	a
      0000E8 F6               [12]  740 	mov	@r0,a
      0000E9 08               [12]  741 	inc	r0
      0000EA F6               [12]  742 	mov	@r0,a
      0000EB                        743 00142$:
                                    744 ;	disp.c:190: if (!bit) {
      0000EB E5*00            [12]  745 	mov	a,_bp
      0000ED 24 06            [12]  746 	add	a,#0x06
      0000EF F8               [12]  747 	mov	r0,a
      0000F0 E6               [12]  748 	mov	a,@r0
      0000F1 70 5F            [24]  749 	jnz	00105$
                                    750 ;	disp.c:191: symbol = msg[i];
      0000F3 A8*00            [24]  751 	mov	r0,_bp
      0000F5 08               [12]  752 	inc	r0
      0000F6 E5*00            [12]  753 	mov	a,_bp
      0000F8 24 07            [12]  754 	add	a,#0x07
      0000FA F9               [12]  755 	mov	r1,a
      0000FB E7               [12]  756 	mov	a,@r1
      0000FC 26               [12]  757 	add	a,@r0
      0000FD FA               [12]  758 	mov	r2,a
      0000FE 09               [12]  759 	inc	r1
      0000FF E7               [12]  760 	mov	a,@r1
      000100 08               [12]  761 	inc	r0
      000101 36               [12]  762 	addc	a,@r0
      000102 FB               [12]  763 	mov	r3,a
      000103 08               [12]  764 	inc	r0
      000104 86 04            [24]  765 	mov	ar4,@r0
      000106 8A 82            [24]  766 	mov	dpl,r2
      000108 8B 83            [24]  767 	mov	dph,r3
      00010A 8C F0            [24]  768 	mov	b,r4
      00010C 12r00r00         [24]  769 	lcall	__gptrget
      00010F FA               [12]  770 	mov	r2,a
      000110 E5*00            [12]  771 	mov	a,_bp
      000112 24 04            [12]  772 	add	a,#0x04
      000114 F8               [12]  773 	mov	r0,a
      000115 A6 02            [24]  774 	mov	@r0,ar2
                                    775 ;	disp.c:192: if (!symbol) {
      000117 EA               [12]  776 	mov	a,r2
      000118 70 25            [24]  777 	jnz	00102$
                                    778 ;	disp.c:193: i = 0u;
      00011A E5*00            [12]  779 	mov	a,_bp
      00011C 24 07            [12]  780 	add	a,#0x07
      00011E F8               [12]  781 	mov	r0,a
      00011F E4               [12]  782 	clr	a
      000120 F6               [12]  783 	mov	@r0,a
      000121 08               [12]  784 	inc	r0
      000122 F6               [12]  785 	mov	@r0,a
                                    786 ;	disp.c:194: symbol = msg[i];
      000123 A8*00            [24]  787 	mov	r0,_bp
      000125 08               [12]  788 	inc	r0
      000126 86 82            [24]  789 	mov	dpl,@r0
      000128 08               [12]  790 	inc	r0
      000129 86 83            [24]  791 	mov	dph,@r0
      00012B 08               [12]  792 	inc	r0
      00012C 86 F0            [24]  793 	mov	b,@r0
      00012E E5*00            [12]  794 	mov	a,_bp
      000130 24 04            [12]  795 	add	a,#0x04
      000132 F9               [12]  796 	mov	r1,a
      000133 12r00r00         [24]  797 	lcall	__gptrget
      000136 F7               [12]  798 	mov	@r1,a
                                    799 ;	disp.c:195: OE |= 0x80u;
      000137 78r19            [12]  800 	mov	r0,#_OE
      000139 E6               [12]  801 	mov	a,@r0
      00013A 44 80            [12]  802 	orl	a,#0x80
      00013C F6               [12]  803 	mov	@r0,a
      00013D 80 06            [24]  804 	sjmp	00103$
      00013F                        805 00102$:
                                    806 ;	disp.c:196: } else OE |= 0x40u;
      00013F 78r19            [12]  807 	mov	r0,#_OE
      000141 E6               [12]  808 	mov	a,@r0
      000142 44 40            [12]  809 	orl	a,#0x40
      000144 F6               [12]  810 	mov	@r0,a
      000145                        811 00103$:
                                    812 ;	disp.c:197: i++;
      000145 E5*00            [12]  813 	mov	a,_bp
      000147 24 07            [12]  814 	add	a,#0x07
      000149 F8               [12]  815 	mov	r0,a
      00014A 06               [12]  816 	inc	@r0
      00014B B6 00 02         [24]  817 	cjne	@r0,#0x00,00230$
      00014E 08               [12]  818 	inc	r0
      00014F 06               [12]  819 	inc	@r0
      000150                        820 00230$:
      000150 80 06            [24]  821 	sjmp	00107$
      000152                        822 00105$:
                                    823 ;	disp.c:198: } else OE &= ~(0x80u | 0x40u);
      000152 78r19            [12]  824 	mov	r0,#_OE
      000154 E6               [12]  825 	mov	a,@r0
      000155 54 3F            [12]  826 	anl	a,#0x3f
      000157 F6               [12]  827 	mov	@r0,a
                                    828 ;	disp.c:199: GPO_SETOE(OE);
      000158                        829 00107$:
      000158 78 06            [12]  830 	mov	r0,#(_gpo + 0x0006)
      00015A 79r19            [12]  831 	mov	r1,#_OE
      00015C E7               [12]  832 	mov	a,@r1
      00015D F2               [24]  833 	movx	@r0,a
                                    834 ;	disp.c:201: if (FONT_SKIP & sddcol[bit]) goto skip_shift;
      00015E E5*00            [12]  835 	mov	a,_bp
      000160 24 06            [12]  836 	add	a,#0x06
      000162 F8               [12]  837 	mov	r0,a
      000163 E6               [12]  838 	mov	a,@r0
      000164 24r08            [12]  839 	add	a,#_sddcol
      000166 F9               [12]  840 	mov	r1,a
      000167 E7               [12]  841 	mov	a,@r1
      000168 FB               [12]  842 	mov	r3,a
      000169 54 C0            [12]  843 	anl	a,#0xc0
      00016B 60 02            [24]  844 	jz	00232$
      00016D 80 74            [24]  845 	sjmp	00113$
      00016F                        846 00232$:
                                    847 ;	disp.c:159: TR1 = 0;
                                    848 ;	assignBit
      00016F C2 8E            [12]  849 	clr	_TR1
                                    850 ;	disp.c:160: TH1 = TR1_COUNT_0 >> 8;
      000171 75 8D 00         [24]  851 	mov	_TH1,#0x00
                                    852 ;	disp.c:161: TL1 = TR1_COUNT_0 & 0xffu;	
      000174 75 8B 00         [24]  853 	mov	_TL1,#0x00
                                    854 ;	disp.c:162: TF1 = 0;
                                    855 ;	assignBit
      000177 C2 8F            [12]  856 	clr	_TF1
                                    857 ;	disp.c:163: TR1 = 1;
                                    858 ;	assignBit
      000179 D2 8E            [12]  859 	setb	_TR1
                                    860 ;	disp.c:164: while (!TF1);
      00017B                        861 00128$:
                                    862 ;	disp.c:165: TF1 = 0;
                                    863 ;	assignBit
      00017B 10 8F 02         [24]  864 	jbc	_TF1,00233$
      00017E 80 FB            [24]  865 	sjmp	00128$
      000180                        866 00233$:
                                    867 ;	disp.c:167: TR1 = 0;
                                    868 ;	assignBit
      000180 C2 8E            [12]  869 	clr	_TR1
                                    870 ;	disp.c:168: TH1 = TR1_COUNT_1 >> 8;
      000182 75 8D C0         [24]  871 	mov	_TH1,#0xc0
                                    872 ;	disp.c:169: TL1 = TR1_COUNT_1 & 0xffu;	
      000185 75 8B 00         [24]  873 	mov	_TL1,#0x00
                                    874 ;	disp.c:170: TF1 = 0;
                                    875 ;	assignBit
      000188 C2 8F            [12]  876 	clr	_TF1
                                    877 ;	disp.c:171: TR1 = 1;
                                    878 ;	assignBit
      00018A D2 8E            [12]  879 	setb	_TR1
                                    880 ;	disp.c:172: while (!TF1);
      00018C                        881 00131$:
                                    882 ;	disp.c:173: TF1 = 0;
                                    883 ;	assignBit
      00018C 10 8F 02         [24]  884 	jbc	_TF1,00234$
      00018F 80 FB            [24]  885 	sjmp	00131$
      000191                        886 00234$:
                                    887 ;	disp.c:175: TR1 = 0;
                                    888 ;	assignBit
      000191 C2 8E            [12]  889 	clr	_TR1
                                    890 ;	disp.c:204: for (j = 0u; j < 8u; j++)
      000193 E5*00            [12]  891 	mov	a,_bp
      000195 24 04            [12]  892 	add	a,#0x04
      000197 F8               [12]  893 	mov	r0,a
      000198 E6               [12]  894 	mov	a,@r0
      000199 75 F0 08         [24]  895 	mov	b,#0x08
      00019C A4               [48]  896 	mul	ab
      00019D 24r00            [12]  897 	add	a,#__ft_font6x8
      00019F FA               [12]  898 	mov	r2,a
      0001A0 74s00            [12]  899 	mov	a,#(__ft_font6x8 >> 8)
      0001A2 35 F0            [12]  900 	addc	a,b
      0001A4 FB               [12]  901 	mov	r3,a
      0001A5 E5*00            [12]  902 	mov	a,_bp
      0001A7 24 06            [12]  903 	add	a,#0x06
      0001A9 F8               [12]  904 	mov	r0,a
      0001AA 74 07            [12]  905 	mov	a,#0x07
      0001AC C3               [12]  906 	clr	c
      0001AD 96               [12]  907 	subb	a,@r0
      0001AE FD               [12]  908 	mov	r5,a
      0001AF 7C 00            [12]  909 	mov	r4,#0x00
      0001B1                        910 00137$:
                                    911 ;	disp.c:205: ddata[j] = (((FONT_TABLE[symbol][j] ^ inv) << (7u - bit)) & 0x80u) | (ddata[j] >> 1u);
      0001B1 EC               [12]  912 	mov	a,r4
      0001B2 24r10            [12]  913 	add	a,#_ddata
      0001B4 F9               [12]  914 	mov	r1,a
      0001B5 EC               [12]  915 	mov	a,r4
      0001B6 2A               [12]  916 	add	a,r2
      0001B7 F5 82            [12]  917 	mov	dpl,a
      0001B9 E4               [12]  918 	clr	a
      0001BA 3B               [12]  919 	addc	a,r3
      0001BB F5 83            [12]  920 	mov	dph,a
      0001BD E0               [24]  921 	movx	a,@dptr
      0001BE FF               [12]  922 	mov	r7,a
      0001BF 78r1A            [12]  923 	mov	r0,#_inv
      0001C1 E6               [12]  924 	mov	a,@r0
      0001C2 62 07            [12]  925 	xrl	ar7,a
      0001C4 8D F0            [24]  926 	mov	b,r5
      0001C6 05 F0            [12]  927 	inc	b
      0001C8 EF               [12]  928 	mov	a,r7
      0001C9 80 02            [24]  929 	sjmp	00237$
      0001CB                        930 00235$:
      0001CB 25 E0            [12]  931 	add	a,acc
      0001CD                        932 00237$:
      0001CD D5 F0 FB         [24]  933 	djnz	b,00235$
      0001D0 54 80            [12]  934 	anl	a,#0x80
      0001D2 FF               [12]  935 	mov	r7,a
      0001D3 EC               [12]  936 	mov	a,r4
      0001D4 24r10            [12]  937 	add	a,#_ddata
      0001D6 F8               [12]  938 	mov	r0,a
      0001D7 E6               [12]  939 	mov	a,@r0
      0001D8 C3               [12]  940 	clr	c
      0001D9 13               [12]  941 	rrc	a
      0001DA FE               [12]  942 	mov	r6,a
      0001DB 4F               [12]  943 	orl	a,r7
      0001DC F7               [12]  944 	mov	@r1,a
                                    945 ;	disp.c:204: for (j = 0u; j < 8u; j++)
      0001DD 0C               [12]  946 	inc	r4
      0001DE BC 08 00         [24]  947 	cjne	r4,#0x08,00238$
      0001E1                        948 00238$:
      0001E1 40 CE            [24]  949 	jc	00137$
                                    950 ;	disp.c:207: skip_shift:
      0001E3                        951 00113$:
                                    952 ;	disp.c:208: if ((r = getchar_poll()) >= 0) {
      0001E3 12r00r00         [24]  953 	lcall	_getchar_poll
      0001E6 AB 82            [24]  954 	mov	r3,dpl
      0001E8 AC 83            [24]  955 	mov	r4,dph
      0001EA 8B 07            [24]  956 	mov	ar7,r3
      0001EC EC               [12]  957 	mov	a,r4
      0001ED FE               [12]  958 	mov	r6,a
      0001EE 30 E7 03         [24]  959 	jnb	acc.7,00240$
      0001F1 02r02r65         [24]  960 	ljmp	00143$
      0001F4                        961 00240$:
                                    962 ;	disp.c:209: r = toupper(r);
      0001F4 8F 82            [24]  963 	mov	dpl,r7
      0001F6 8E 83            [24]  964 	mov	dph,r6
      0001F8 12r00r00         [24]  965 	lcall	_toupper
      0001FB AB 82            [24]  966 	mov	r3,dpl
      0001FD AC 83            [24]  967 	mov	r4,dph
                                    968 ;	disp.c:210: if ((r == (int)'P') || (r == (int)' ')) {
      0001FF BB 50 05         [24]  969 	cjne	r3,#0x50,00241$
      000202 BC 00 02         [24]  970 	cjne	r4,#0x00,00241$
      000205 80 06            [24]  971 	sjmp	00121$
      000207                        972 00241$:
      000207 BB 20 36         [24]  973 	cjne	r3,#0x20,00122$
      00020A BC 00 33         [24]  974 	cjne	r4,#0x00,00122$
      00020D                        975 00121$:
                                    976 ;	disp.c:211: printstr("PAUSE\r\n");
      00020D 7Er00            [12]  977 	mov	r6,#___str_0
      00020F 7Cs00            [12]  978 	mov	r4,#(___str_0 >> 8)
      000211 7B 80            [12]  979 	mov	r3,#0x80
                                    980 ;	disp.c:14: return;
      000213                        981 00140$:
                                    982 ;	disp.c:12: for (; *s; s++) putchar(*s);
      000213 8E 82            [24]  983 	mov	dpl,r6
      000215 8C 83            [24]  984 	mov	dph,r4
      000217 8B F0            [24]  985 	mov	b,r3
      000219 12r00r00         [24]  986 	lcall	__gptrget
      00021C FD               [12]  987 	mov	r5,a
      00021D 60 1C            [24]  988 	jz	00136$
      00021F 7F 00            [12]  989 	mov	r7,#0x00
      000221 8D 82            [24]  990 	mov	dpl,r5
      000223 8F 83            [24]  991 	mov	dph,r7
      000225 C0 06            [24]  992 	push	ar6
      000227 C0 04            [24]  993 	push	ar4
      000229 C0 03            [24]  994 	push	ar3
      00022B 12r00r00         [24]  995 	lcall	_putchar
      00022E D0 03            [24]  996 	pop	ar3
      000230 D0 04            [24]  997 	pop	ar4
      000232 D0 06            [24]  998 	pop	ar6
      000234 0E               [12]  999 	inc	r6
                                   1000 ;	disp.c:211: printstr("PAUSE\r\n");
      000235 BE 00 DB         [24] 1001 	cjne	r6,#0x00,00140$
      000238 0C               [12] 1002 	inc	r4
      000239 80 D8            [24] 1003 	sjmp	00140$
      00023B                       1004 00136$:
                                   1005 ;	disp.c:212: (void)getchar();
      00023B 12r00r00         [24] 1006 	lcall	_getchar
      00023E 80 25            [24] 1007 	sjmp	00143$
      000240                       1008 00122$:
                                   1009 ;	disp.c:213: } else if (r == (int)'I') inv = ~inv;
      000240 BB 49 0A         [24] 1010 	cjne	r3,#0x49,00119$
      000243 BC 00 07         [24] 1011 	cjne	r4,#0x00,00119$
      000246 78r1A            [12] 1012 	mov	r0,#_inv
      000248 E6               [12] 1013 	mov	a,@r0
      000249 F4               [12] 1014 	cpl	a
      00024A F6               [12] 1015 	mov	@r0,a
      00024B 80 18            [24] 1016 	sjmp	00143$
      00024D                       1017 00119$:
                                   1018 ;	disp.c:214: else if ((r == (int)'T') || (r == (int)'R') || (r == (int)'L')) break;
      00024D BB 54 05         [24] 1019 	cjne	r3,#0x54,00248$
      000250 BC 00 02         [24] 1020 	cjne	r4,#0x00,00248$
      000253 80 24            [24] 1021 	sjmp	00127$
      000255                       1022 00248$:
      000255 BB 52 05         [24] 1023 	cjne	r3,#0x52,00249$
      000258 BC 00 02         [24] 1024 	cjne	r4,#0x00,00249$
      00025B 80 1C            [24] 1025 	sjmp	00127$
      00025D                       1026 00249$:
      00025D BB 4C 05         [24] 1027 	cjne	r3,#0x4c,00250$
      000260 BC 00 02         [24] 1028 	cjne	r4,#0x00,00250$
      000263 80 14            [24] 1029 	sjmp	00127$
      000265                       1030 00250$:
      000265                       1031 00143$:
                                   1032 ;	disp.c:189: for (bit = 0u, i = 0u; ; bit = (bit + 1u) & 0x07u) {
      000265 E5*00            [12] 1033 	mov	a,_bp
      000267 24 06            [12] 1034 	add	a,#0x06
      000269 F8               [12] 1035 	mov	r0,a
      00026A E6               [12] 1036 	mov	a,@r0
      00026B 04               [12] 1037 	inc	a
      00026C FF               [12] 1038 	mov	r7,a
      00026D E5*00            [12] 1039 	mov	a,_bp
      00026F 24 06            [12] 1040 	add	a,#0x06
      000271 F8               [12] 1041 	mov	r0,a
      000272 74 07            [12] 1042 	mov	a,#0x07
      000274 5F               [12] 1043 	anl	a,r7
      000275 F6               [12] 1044 	mov	@r0,a
      000276 02r00rEB         [24] 1045 	ljmp	00142$
      000279                       1046 00127$:
                                   1047 ;	disp.c:218: return r;
      000279 8B 82            [24] 1048 	mov	dpl,r3
      00027B 8C 83            [24] 1049 	mov	dph,r4
                                   1050 ;	disp.c:219: }
      00027D 85*00 81         [24] 1051 	mov	sp,_bp
      000280 D0*00            [24] 1052 	pop	_bp
      000282 22               [24] 1053 	ret
                                   1054 ;------------------------------------------------------------
                                   1055 ;Allocation info for local variables in function 'main'
                                   1056 ;------------------------------------------------------------
                                   1057 ;j                         Allocated to stack - _bp +1
                                   1058 ;c                         Allocated to registers r7 r6 
                                   1059 ;__1310720004              Allocated to registers 
                                   1060 ;s                         Allocated to registers r5 r6 r7 
                                   1061 ;__1966080006              Allocated to registers 
                                   1062 ;s                         Allocated to registers r5 r6 r7 
                                   1063 ;__1966080008              Allocated to registers 
                                   1064 ;s                         Allocated to registers r5 r6 r7 
                                   1065 ;__1966080010              Allocated to registers 
                                   1066 ;s                         Allocated to registers r5 r6 r7 
                                   1067 ;__3276800012              Allocated to registers 
                                   1068 ;s                         Allocated to registers r7 r6 r4 
                                   1069 ;__3276800014              Allocated to registers 
                                   1070 ;s                         Allocated to registers r7 r6 r4 
                                   1071 ;__3276800016              Allocated to registers 
                                   1072 ;s                         Allocated to registers r7 r6 r4 
                                   1073 ;__3276800018              Allocated to registers 
                                   1074 ;s                         Allocated to registers r7 r6 r4 
                                   1075 ;__3276800020              Allocated to registers 
                                   1076 ;s                         Allocated to registers r7 r6 r4 
                                   1077 ;__1310720022              Allocated to registers 
                                   1078 ;s                         Allocated to registers r5 r6 r7 
                                   1079 ;sloc0                     Allocated to stack - _bp +65
                                   1080 ;------------------------------------------------------------
                                   1081 ;	disp.c:221: void main(void) {
                                   1082 ;	-----------------------------------------
                                   1083 ;	 function main
                                   1084 ;	-----------------------------------------
      000283                       1085 _main:
      000283 C0*00            [24] 1086 	push	_bp
      000285 85 81*00         [24] 1087 	mov	_bp,sp
      000288 05 81            [12] 1088 	inc	sp
      00028A 05 81            [12] 1089 	inc	sp
                                   1090 ;	disp.c:225: gpo_init();
      00028C 12r00r00         [24] 1091 	lcall	_gpo_init
                                   1092 ;	disp.c:226: gpo_clear();
      00028F 12r00r21         [24] 1093 	lcall	_gpo_clear
                                   1094 ;	disp.c:227: init_disp();
      000292 12r00r5D         [24] 1095 	lcall	_init_disp
                                   1096 ;	disp.c:228: init_timer0();
      000295 12r00r45         [24] 1097 	lcall	_init_timer0
                                   1098 ;	disp.c:229: init_timer1();
      000298 12r00r51         [24] 1099 	lcall	_init_timer1
                                   1100 ;	disp.c:230: init_intr();
      00029B 12r00r3A         [24] 1101 	lcall	_init_intr
                                   1102 ;	disp.c:231: TR0 = 1;
                                   1103 ;	assignBit
      00029E D2 8C            [12] 1104 	setb	_TR0
                                   1105 ;	disp.c:233: reset:
      0002A0                       1106 00101$:
                                   1107 ;	disp.c:234: init_disp();
      0002A0 12r00r5D         [24] 1108 	lcall	_init_disp
                                   1109 ;	disp.c:235: printstr("RESET\r\n");
      0002A3 7Dr08            [12] 1110 	mov	r5,#___str_1
      0002A5 7Es00            [12] 1111 	mov	r6,#(___str_1 >> 8)
      0002A7 7F 80            [12] 1112 	mov	r7,#0x80
                                   1113 ;	disp.c:14: return;
      0002A9                       1114 00149$:
                                   1115 ;	disp.c:12: for (; *s; s++) putchar(*s);
      0002A9 8D 82            [24] 1116 	mov	dpl,r5
      0002AB 8E 83            [24] 1117 	mov	dph,r6
      0002AD 8F F0            [24] 1118 	mov	b,r7
      0002AF 12r00r00         [24] 1119 	lcall	__gptrget
      0002B2 FC               [12] 1120 	mov	r4,a
      0002B3 60 1C            [24] 1121 	jz	00129$
      0002B5 7B 00            [12] 1122 	mov	r3,#0x00
      0002B7 8C 82            [24] 1123 	mov	dpl,r4
      0002B9 8B 83            [24] 1124 	mov	dph,r3
      0002BB C0 07            [24] 1125 	push	ar7
      0002BD C0 06            [24] 1126 	push	ar6
      0002BF C0 05            [24] 1127 	push	ar5
      0002C1 12r00r00         [24] 1128 	lcall	_putchar
      0002C4 D0 05            [24] 1129 	pop	ar5
      0002C6 D0 06            [24] 1130 	pop	ar6
      0002C8 D0 07            [24] 1131 	pop	ar7
      0002CA 0D               [12] 1132 	inc	r5
                                   1133 ;	disp.c:235: printstr("RESET\r\n");
      0002CB BD 00 DB         [24] 1134 	cjne	r5,#0x00,00149$
      0002CE 0E               [12] 1135 	inc	r6
      0002CF 80 D8            [24] 1136 	sjmp	00149$
      0002D1                       1137 00129$:
                                   1138 ;	disp.c:236: (void)strncpy(buf, initial, sizeof (buf) - 1u);
      0002D1 E4               [12] 1139 	clr	a
      0002D2 C0 E0            [24] 1140 	push	acc
      0002D4 04               [12] 1141 	inc	a
      0002D5 C0 E0            [24] 1142 	push	acc
      0002D7 90r08r00         [24] 1143 	mov	dptr,#_initial
      0002DA E0               [24] 1144 	movx	a,@dptr
      0002DB C0 E0            [24] 1145 	push	acc
      0002DD A3               [24] 1146 	inc	dptr
      0002DE E0               [24] 1147 	movx	a,@dptr
      0002DF C0 E0            [24] 1148 	push	acc
      0002E1 A3               [24] 1149 	inc	dptr
      0002E2 E0               [24] 1150 	movx	a,@dptr
      0002E3 C0 E0            [24] 1151 	push	acc
      0002E5 90r00r00         [24] 1152 	mov	dptr,#_buf
      0002E8 75 F0 00         [24] 1153 	mov	b,#0x00
      0002EB 12r00r00         [24] 1154 	lcall	_strncpy
      0002EE E5 81            [12] 1155 	mov	a,sp
      0002F0 24 FB            [12] 1156 	add	a,#0xfb
      0002F2 F5 81            [12] 1157 	mov	sp,a
                                   1158 ;	disp.c:237: buf[sizeof (buf) - 1u] = 0u;
      0002F4 90r01r00         [24] 1159 	mov	dptr,#(_buf + 0x0100)
      0002F7 E4               [12] 1160 	clr	a
      0002F8 F0               [24] 1161 	movx	@dptr,a
                                   1162 ;	disp.c:238: inv = 0u;
      0002F9 78r1A            [12] 1163 	mov	r0,#_inv
      0002FB 76 00            [12] 1164 	mov	@r0,#0x00
                                   1165 ;	disp.c:240: while (1) {
      0002FD                       1166 00125$:
                                   1167 ;	disp.c:241: printstr("P SP I L ENT S R T START MSG \"");
      0002FD 7Dr10            [12] 1168 	mov	r5,#___str_2
      0002FF 7Es00            [12] 1169 	mov	r6,#(___str_2 >> 8)
      000301 7F 80            [12] 1170 	mov	r7,#0x80
                                   1171 ;	disp.c:14: return;
      000303                       1172 00152$:
                                   1173 ;	disp.c:12: for (; *s; s++) putchar(*s);
      000303 8D 82            [24] 1174 	mov	dpl,r5
      000305 8E 83            [24] 1175 	mov	dph,r6
      000307 8F F0            [24] 1176 	mov	b,r7
      000309 12r00r00         [24] 1177 	lcall	__gptrget
      00030C FC               [12] 1178 	mov	r4,a
      00030D 60 1C            [24] 1179 	jz	00131$
      00030F 7B 00            [12] 1180 	mov	r3,#0x00
      000311 8C 82            [24] 1181 	mov	dpl,r4
      000313 8B 83            [24] 1182 	mov	dph,r3
      000315 C0 07            [24] 1183 	push	ar7
      000317 C0 06            [24] 1184 	push	ar6
      000319 C0 05            [24] 1185 	push	ar5
      00031B 12r00r00         [24] 1186 	lcall	_putchar
      00031E D0 05            [24] 1187 	pop	ar5
      000320 D0 06            [24] 1188 	pop	ar6
      000322 D0 07            [24] 1189 	pop	ar7
      000324 0D               [12] 1190 	inc	r5
                                   1191 ;	disp.c:241: printstr("P SP I L ENT S R T START MSG \"");
      000325 BD 00 DB         [24] 1192 	cjne	r5,#0x00,00152$
      000328 0E               [12] 1193 	inc	r6
      000329 80 D8            [24] 1194 	sjmp	00152$
      00032B                       1195 00131$:
                                   1196 ;	disp.c:242: printstr((char *)buf);
      00032B 7Dr00            [12] 1197 	mov	r5,#_buf
      00032D 7Es00            [12] 1198 	mov	r6,#(_buf >> 8)
      00032F 7F 00            [12] 1199 	mov	r7,#0x00
                                   1200 ;	disp.c:14: return;
      000331                       1201 00155$:
                                   1202 ;	disp.c:12: for (; *s; s++) putchar(*s);
      000331 8D 82            [24] 1203 	mov	dpl,r5
      000333 8E 83            [24] 1204 	mov	dph,r6
      000335 8F F0            [24] 1205 	mov	b,r7
      000337 12r00r00         [24] 1206 	lcall	__gptrget
      00033A FC               [12] 1207 	mov	r4,a
      00033B 60 1C            [24] 1208 	jz	00133$
      00033D 7B 00            [12] 1209 	mov	r3,#0x00
      00033F 8C 82            [24] 1210 	mov	dpl,r4
      000341 8B 83            [24] 1211 	mov	dph,r3
      000343 C0 07            [24] 1212 	push	ar7
      000345 C0 06            [24] 1213 	push	ar6
      000347 C0 05            [24] 1214 	push	ar5
      000349 12r00r00         [24] 1215 	lcall	_putchar
      00034C D0 05            [24] 1216 	pop	ar5
      00034E D0 06            [24] 1217 	pop	ar6
      000350 D0 07            [24] 1218 	pop	ar7
      000352 0D               [12] 1219 	inc	r5
                                   1220 ;	disp.c:242: printstr((char *)buf);
      000353 BD 00 DB         [24] 1221 	cjne	r5,#0x00,00155$
      000356 0E               [12] 1222 	inc	r6
      000357 80 D8            [24] 1223 	sjmp	00155$
      000359                       1224 00133$:
                                   1225 ;	disp.c:243: printstr("\"\r\n");
      000359 7Dr2F            [12] 1226 	mov	r5,#___str_3
      00035B 7Es00            [12] 1227 	mov	r6,#(___str_3 >> 8)
      00035D 7F 80            [12] 1228 	mov	r7,#0x80
                                   1229 ;	disp.c:14: return;
      00035F                       1230 00158$:
                                   1231 ;	disp.c:12: for (; *s; s++) putchar(*s);
      00035F 8D 82            [24] 1232 	mov	dpl,r5
      000361 8E 83            [24] 1233 	mov	dph,r6
      000363 8F F0            [24] 1234 	mov	b,r7
      000365 12r00r00         [24] 1235 	lcall	__gptrget
      000368 FC               [12] 1236 	mov	r4,a
      000369 60 1C            [24] 1237 	jz	00135$
      00036B 7B 00            [12] 1238 	mov	r3,#0x00
      00036D 8C 82            [24] 1239 	mov	dpl,r4
      00036F 8B 83            [24] 1240 	mov	dph,r3
      000371 C0 07            [24] 1241 	push	ar7
      000373 C0 06            [24] 1242 	push	ar6
      000375 C0 05            [24] 1243 	push	ar5
      000377 12r00r00         [24] 1244 	lcall	_putchar
      00037A D0 05            [24] 1245 	pop	ar5
      00037C D0 06            [24] 1246 	pop	ar6
      00037E D0 07            [24] 1247 	pop	ar7
      000380 0D               [12] 1248 	inc	r5
                                   1249 ;	disp.c:243: printstr("\"\r\n");
      000381 BD 00 DB         [24] 1250 	cjne	r5,#0x00,00158$
      000384 0E               [12] 1251 	inc	r6
      000385 80 D8            [24] 1252 	sjmp	00158$
      000387                       1253 00135$:
                                   1254 ;	disp.c:245: c = scroll(buf);
      000387 90r00r00         [24] 1255 	mov	dptr,#_buf
      00038A 75 F0 00         [24] 1256 	mov	b,#0x00
      00038D 12r00rCA         [24] 1257 	lcall	_scroll
      000390 AE 82            [24] 1258 	mov	r6,dpl
      000392 AF 83            [24] 1259 	mov	r7,dph
                                   1260 ;	disp.c:247: while (1) {
      000394                       1261 00122$:
                                   1262 ;	disp.c:248: if (c == (int)'T') goto term;
      000394 BE 54 06         [24] 1263 	cjne	r6,#0x54,00345$
      000397 BF 00 03         [24] 1264 	cjne	r7,#0x00,00345$
      00039A 02r05r51         [24] 1265 	ljmp	00127$
      00039D                       1266 00345$:
                                   1267 ;	disp.c:249: else if (c == (int)'R') goto reset;
      00039D BE 52 06         [24] 1268 	cjne	r6,#0x52,00346$
      0003A0 BF 00 03         [24] 1269 	cjne	r7,#0x00,00346$
      0003A3 02r02rA0         [24] 1270 	ljmp	00101$
      0003A6                       1271 00346$:
                                   1272 ;	disp.c:250: else if (c == (int)'I') inv = ~inv;
      0003A6 BE 49 0B         [24] 1273 	cjne	r6,#0x49,00113$
      0003A9 BF 00 08         [24] 1274 	cjne	r7,#0x00,00113$
      0003AC 78r1A            [12] 1275 	mov	r0,#_inv
      0003AE E6               [12] 1276 	mov	a,@r0
      0003AF F4               [12] 1277 	cpl	a
      0003B0 F6               [12] 1278 	mov	@r0,a
      0003B1 02r05r44         [24] 1279 	ljmp	00120$
      0003B4                       1280 00113$:
                                   1281 ;	disp.c:251: else if (c == (int)'L') {
      0003B4 BE 4C 05         [24] 1282 	cjne	r6,#0x4c,00349$
      0003B7 BF 00 02         [24] 1283 	cjne	r7,#0x00,00349$
      0003BA 80 03            [24] 1284 	sjmp	00350$
      0003BC                       1285 00349$:
      0003BC 02r05r3B         [24] 1286 	ljmp	00110$
      0003BF                       1287 00350$:
                                   1288 ;	disp.c:252: init_disp();
      0003BF 12r00r5D         [24] 1289 	lcall	_init_disp
                                   1290 ;	disp.c:253: printstr("LOAD ");
      0003C2 7Fr33            [12] 1291 	mov	r7,#___str_4
      0003C4 7Es00            [12] 1292 	mov	r6,#(___str_4 >> 8)
      0003C6 7C 80            [12] 1293 	mov	r4,#0x80
                                   1294 ;	disp.c:14: return;
      0003C8                       1295 00161$:
                                   1296 ;	disp.c:12: for (; *s; s++) putchar(*s);
      0003C8 8F 82            [24] 1297 	mov	dpl,r7
      0003CA 8E 83            [24] 1298 	mov	dph,r6
      0003CC 8C F0            [24] 1299 	mov	b,r4
      0003CE 12r00r00         [24] 1300 	lcall	__gptrget
      0003D1 FA               [12] 1301 	mov	r2,a
      0003D2 60 1C            [24] 1302 	jz	00137$
      0003D4 7D 00            [12] 1303 	mov	r5,#0x00
      0003D6 8A 82            [24] 1304 	mov	dpl,r2
      0003D8 8D 83            [24] 1305 	mov	dph,r5
      0003DA C0 07            [24] 1306 	push	ar7
      0003DC C0 06            [24] 1307 	push	ar6
      0003DE C0 04            [24] 1308 	push	ar4
      0003E0 12r00r00         [24] 1309 	lcall	_putchar
      0003E3 D0 04            [24] 1310 	pop	ar4
      0003E5 D0 06            [24] 1311 	pop	ar6
      0003E7 D0 07            [24] 1312 	pop	ar7
      0003E9 0F               [12] 1313 	inc	r7
                                   1314 ;	disp.c:253: printstr("LOAD ");
      0003EA BF 00 DB         [24] 1315 	cjne	r7,#0x00,00161$
      0003ED 0E               [12] 1316 	inc	r6
      0003EE 80 D8            [24] 1317 	sjmp	00161$
      0003F0                       1318 00137$:
                                   1319 ;	disp.c:254: for (j = 0u; j < (sizeof (buf) - 1u); j++) {
      0003F0 7C 00            [12] 1320 	mov	r4,#0x00
      0003F2 7D 00            [12] 1321 	mov	r5,#0x00
      0003F4 A8*00            [24] 1322 	mov	r0,_bp
      0003F6 08               [12] 1323 	inc	r0
      0003F7 E4               [12] 1324 	clr	a
      0003F8 F6               [12] 1325 	mov	@r0,a
      0003F9 08               [12] 1326 	inc	r0
      0003FA F6               [12] 1327 	mov	@r0,a
      0003FB                       1328 00163$:
                                   1329 ;	disp.c:255: c = getchar();
      0003FB C0 04            [24] 1330 	push	ar4
      0003FD C0 05            [24] 1331 	push	ar5
      0003FF 12r00r00         [24] 1332 	lcall	_getchar
      000402 AC 82            [24] 1333 	mov	r4,dpl
      000404 AD 83            [24] 1334 	mov	r5,dph
      000406 8C 07            [24] 1335 	mov	ar7,r4
      000408 8D 06            [24] 1336 	mov	ar6,r5
                                   1337 ;	disp.c:256: (void)putchar(c);
      00040A 8F 82            [24] 1338 	mov	dpl,r7
      00040C 8E 83            [24] 1339 	mov	dph,r6
      00040E C0 07            [24] 1340 	push	ar7
      000410 C0 06            [24] 1341 	push	ar6
      000412 C0 05            [24] 1342 	push	ar5
      000414 C0 04            [24] 1343 	push	ar4
      000416 12r00r00         [24] 1344 	lcall	_putchar
      000419 D0 04            [24] 1345 	pop	ar4
      00041B D0 05            [24] 1346 	pop	ar5
      00041D D0 06            [24] 1347 	pop	ar6
      00041F D0 07            [24] 1348 	pop	ar7
                                   1349 ;	disp.c:257: if ((c == (int)'\r') || (c == (int)'\n')) {
      000421 BF 0D 09         [24] 1350 	cjne	r7,#0x0d,00353$
      000424 BE 00 06         [24] 1351 	cjne	r6,#0x00,00353$
      000427 D0 05            [24] 1352 	pop	ar5
      000429 D0 04            [24] 1353 	pop	ar4
      00042B 80 0A            [24] 1354 	sjmp	00102$
      00042D                       1355 00353$:
      00042D D0 05            [24] 1356 	pop	ar5
      00042F D0 04            [24] 1357 	pop	ar4
      000431 BF 0A 11         [24] 1358 	cjne	r7,#0x0a,00103$
      000434 BE 00 0E         [24] 1359 	cjne	r6,#0x00,00103$
      000437                       1360 00102$:
                                   1361 ;	disp.c:258: buf[j] = 0u;
      000437 EC               [12] 1362 	mov	a,r4
      000438 24r00            [12] 1363 	add	a,#_buf
      00043A F5 82            [12] 1364 	mov	dpl,a
      00043C ED               [12] 1365 	mov	a,r5
      00043D 34s00            [12] 1366 	addc	a,#(_buf >> 8)
      00043F F5 83            [12] 1367 	mov	dph,a
      000441 E4               [12] 1368 	clr	a
      000442 F0               [24] 1369 	movx	@dptr,a
                                   1370 ;	disp.c:259: break;
      000443 80 32            [24] 1371 	sjmp	00106$
      000445                       1372 00103$:
                                   1373 ;	disp.c:260: } else buf[j] = c & 0xffu;
      000445 A8*00            [24] 1374 	mov	r0,_bp
      000447 08               [12] 1375 	inc	r0
      000448 E6               [12] 1376 	mov	a,@r0
      000449 24r00            [12] 1377 	add	a,#_buf
      00044B FD               [12] 1378 	mov	r5,a
      00044C 08               [12] 1379 	inc	r0
      00044D E6               [12] 1380 	mov	a,@r0
      00044E 34s00            [12] 1381 	addc	a,#(_buf >> 8)
      000450 FC               [12] 1382 	mov	r4,a
      000451 8F 03            [24] 1383 	mov	ar3,r7
      000453 8D 82            [24] 1384 	mov	dpl,r5
      000455 8C 83            [24] 1385 	mov	dph,r4
      000457 EB               [12] 1386 	mov	a,r3
      000458 F0               [24] 1387 	movx	@dptr,a
                                   1388 ;	disp.c:254: for (j = 0u; j < (sizeof (buf) - 1u); j++) {
      000459 A8*00            [24] 1389 	mov	r0,_bp
      00045B 08               [12] 1390 	inc	r0
      00045C 06               [12] 1391 	inc	@r0
      00045D B6 00 02         [24] 1392 	cjne	@r0,#0x00,00356$
      000460 08               [12] 1393 	inc	r0
      000461 06               [12] 1394 	inc	@r0
      000462                       1395 00356$:
      000462 A8*00            [24] 1396 	mov	r0,_bp
      000464 08               [12] 1397 	inc	r0
      000465 86 04            [24] 1398 	mov	ar4,@r0
      000467 08               [12] 1399 	inc	r0
      000468 86 05            [24] 1400 	mov	ar5,@r0
      00046A A8*00            [24] 1401 	mov	r0,_bp
      00046C 08               [12] 1402 	inc	r0
      00046D 86 02            [24] 1403 	mov	ar2,@r0
      00046F 08               [12] 1404 	inc	r0
      000470 86 03            [24] 1405 	mov	ar3,@r0
      000472 74 FF            [12] 1406 	mov	a,#0x100 - 0x01
      000474 2B               [12] 1407 	add	a,r3
      000475 50 84            [24] 1408 	jnc	00163$
      000477                       1409 00106$:
                                   1410 ;	disp.c:262: buf[j] = 0u;
      000477 EC               [12] 1411 	mov	a,r4
      000478 24r00            [12] 1412 	add	a,#_buf
      00047A F5 82            [12] 1413 	mov	dpl,a
      00047C ED               [12] 1414 	mov	a,r5
      00047D 34s00            [12] 1415 	addc	a,#(_buf >> 8)
      00047F F5 83            [12] 1416 	mov	dph,a
      000481 E4               [12] 1417 	clr	a
      000482 F0               [24] 1418 	movx	@dptr,a
                                   1419 ;	disp.c:263: printstr("\r\n");
      000483 7Fr39            [12] 1420 	mov	r7,#___str_5
      000485 7Es00            [12] 1421 	mov	r6,#(___str_5 >> 8)
      000487 7C 80            [12] 1422 	mov	r4,#0x80
                                   1423 ;	disp.c:14: return;
      000489                       1424 00166$:
                                   1425 ;	disp.c:12: for (; *s; s++) putchar(*s);
      000489 8F 82            [24] 1426 	mov	dpl,r7
      00048B 8E 83            [24] 1427 	mov	dph,r6
      00048D 8C F0            [24] 1428 	mov	b,r4
      00048F 12r00r00         [24] 1429 	lcall	__gptrget
      000492 FA               [12] 1430 	mov	r2,a
      000493 60 1C            [24] 1431 	jz	00139$
      000495 7D 00            [12] 1432 	mov	r5,#0x00
      000497 8A 82            [24] 1433 	mov	dpl,r2
      000499 8D 83            [24] 1434 	mov	dph,r5
      00049B C0 07            [24] 1435 	push	ar7
      00049D C0 06            [24] 1436 	push	ar6
      00049F C0 04            [24] 1437 	push	ar4
      0004A1 12r00r00         [24] 1438 	lcall	_putchar
      0004A4 D0 04            [24] 1439 	pop	ar4
      0004A6 D0 06            [24] 1440 	pop	ar6
      0004A8 D0 07            [24] 1441 	pop	ar7
      0004AA 0F               [12] 1442 	inc	r7
                                   1443 ;	disp.c:263: printstr("\r\n");
      0004AB BF 00 DB         [24] 1444 	cjne	r7,#0x00,00166$
      0004AE 0E               [12] 1445 	inc	r6
      0004AF 80 D8            [24] 1446 	sjmp	00166$
      0004B1                       1447 00139$:
                                   1448 ;	disp.c:264: printstr("MSG \"");
      0004B1 7Fr3C            [12] 1449 	mov	r7,#___str_6
      0004B3 7Es00            [12] 1450 	mov	r6,#(___str_6 >> 8)
      0004B5 7C 80            [12] 1451 	mov	r4,#0x80
                                   1452 ;	disp.c:14: return;
      0004B7                       1453 00169$:
                                   1454 ;	disp.c:12: for (; *s; s++) putchar(*s);
      0004B7 8F 82            [24] 1455 	mov	dpl,r7
      0004B9 8E 83            [24] 1456 	mov	dph,r6
      0004BB 8C F0            [24] 1457 	mov	b,r4
      0004BD 12r00r00         [24] 1458 	lcall	__gptrget
      0004C0 FA               [12] 1459 	mov	r2,a
      0004C1 60 1C            [24] 1460 	jz	00141$
      0004C3 7D 00            [12] 1461 	mov	r5,#0x00
      0004C5 8A 82            [24] 1462 	mov	dpl,r2
      0004C7 8D 83            [24] 1463 	mov	dph,r5
      0004C9 C0 07            [24] 1464 	push	ar7
      0004CB C0 06            [24] 1465 	push	ar6
      0004CD C0 04            [24] 1466 	push	ar4
      0004CF 12r00r00         [24] 1467 	lcall	_putchar
      0004D2 D0 04            [24] 1468 	pop	ar4
      0004D4 D0 06            [24] 1469 	pop	ar6
      0004D6 D0 07            [24] 1470 	pop	ar7
      0004D8 0F               [12] 1471 	inc	r7
                                   1472 ;	disp.c:264: printstr("MSG \"");
      0004D9 BF 00 DB         [24] 1473 	cjne	r7,#0x00,00169$
      0004DC 0E               [12] 1474 	inc	r6
      0004DD 80 D8            [24] 1475 	sjmp	00169$
      0004DF                       1476 00141$:
                                   1477 ;	disp.c:265: printstr((char *)buf);
      0004DF 7Fr00            [12] 1478 	mov	r7,#_buf
      0004E1 7Es00            [12] 1479 	mov	r6,#(_buf >> 8)
      0004E3 7C 00            [12] 1480 	mov	r4,#0x00
                                   1481 ;	disp.c:14: return;
      0004E5                       1482 00172$:
                                   1483 ;	disp.c:12: for (; *s; s++) putchar(*s);
      0004E5 8F 82            [24] 1484 	mov	dpl,r7
      0004E7 8E 83            [24] 1485 	mov	dph,r6
      0004E9 8C F0            [24] 1486 	mov	b,r4
      0004EB 12r00r00         [24] 1487 	lcall	__gptrget
      0004EE FA               [12] 1488 	mov	r2,a
      0004EF 60 1C            [24] 1489 	jz	00143$
      0004F1 7D 00            [12] 1490 	mov	r5,#0x00
      0004F3 8A 82            [24] 1491 	mov	dpl,r2
      0004F5 8D 83            [24] 1492 	mov	dph,r5
      0004F7 C0 07            [24] 1493 	push	ar7
      0004F9 C0 06            [24] 1494 	push	ar6
      0004FB C0 04            [24] 1495 	push	ar4
      0004FD 12r00r00         [24] 1496 	lcall	_putchar
      000500 D0 04            [24] 1497 	pop	ar4
      000502 D0 06            [24] 1498 	pop	ar6
      000504 D0 07            [24] 1499 	pop	ar7
      000506 0F               [12] 1500 	inc	r7
                                   1501 ;	disp.c:265: printstr((char *)buf);
      000507 BF 00 DB         [24] 1502 	cjne	r7,#0x00,00172$
      00050A 0E               [12] 1503 	inc	r6
      00050B 80 D8            [24] 1504 	sjmp	00172$
      00050D                       1505 00143$:
                                   1506 ;	disp.c:266: printstr("\"\r\n");
      00050D 7Fr2F            [12] 1507 	mov	r7,#___str_3
      00050F 7Es00            [12] 1508 	mov	r6,#(___str_3 >> 8)
      000511 7C 80            [12] 1509 	mov	r4,#0x80
                                   1510 ;	disp.c:14: return;
      000513                       1511 00175$:
                                   1512 ;	disp.c:12: for (; *s; s++) putchar(*s);
      000513 8F 82            [24] 1513 	mov	dpl,r7
      000515 8E 83            [24] 1514 	mov	dph,r6
      000517 8C F0            [24] 1515 	mov	b,r4
      000519 12r00r00         [24] 1516 	lcall	__gptrget
      00051C FA               [12] 1517 	mov	r2,a
      00051D 60 25            [24] 1518 	jz	00120$
      00051F 7D 00            [12] 1519 	mov	r5,#0x00
      000521 8A 82            [24] 1520 	mov	dpl,r2
      000523 8D 83            [24] 1521 	mov	dph,r5
      000525 C0 07            [24] 1522 	push	ar7
      000527 C0 06            [24] 1523 	push	ar6
      000529 C0 04            [24] 1524 	push	ar4
      00052B 12r00r00         [24] 1525 	lcall	_putchar
      00052E D0 04            [24] 1526 	pop	ar4
      000530 D0 06            [24] 1527 	pop	ar6
      000532 D0 07            [24] 1528 	pop	ar7
      000534 0F               [12] 1529 	inc	r7
                                   1530 ;	disp.c:266: printstr("\"\r\n");
      000535 BF 00 DB         [24] 1531 	cjne	r7,#0x00,00175$
      000538 0E               [12] 1532 	inc	r6
      000539 80 D8            [24] 1533 	sjmp	00175$
      00053B                       1534 00110$:
                                   1535 ;	disp.c:267: } else if (c == (int)'S') break;
      00053B BE 53 06         [24] 1536 	cjne	r6,#0x53,00366$
      00053E BF 00 03         [24] 1537 	cjne	r7,#0x00,00366$
      000541 02r02rFD         [24] 1538 	ljmp	00125$
      000544                       1539 00366$:
      000544                       1540 00120$:
                                   1541 ;	disp.c:269: c = toupper(getchar());
      000544 12r00r00         [24] 1542 	lcall	_getchar
      000547 12r00r00         [24] 1543 	lcall	_toupper
      00054A AE 82            [24] 1544 	mov	r6,dpl
      00054C AF 83            [24] 1545 	mov	r7,dph
      00054E 02r03r94         [24] 1546 	ljmp	00122$
                                   1547 ;	disp.c:273: term:	
      000551                       1548 00127$:
                                   1549 ;	disp.c:274: EA = 0;
                                   1550 ;	assignBit
      000551 C2 AF            [12] 1551 	clr	_EA
                                   1552 ;	disp.c:275: init_disp();
      000553 12r00r5D         [24] 1553 	lcall	_init_disp
                                   1554 ;	disp.c:276: printstr("TERM\r\n");
      000556 7Dr42            [12] 1555 	mov	r5,#___str_7
      000558 7Es00            [12] 1556 	mov	r6,#(___str_7 >> 8)
      00055A 7F 80            [12] 1557 	mov	r7,#0x80
                                   1558 ;	disp.c:14: return;
      00055C                       1559 00178$:
                                   1560 ;	disp.c:12: for (; *s; s++) putchar(*s);
      00055C 8D 82            [24] 1561 	mov	dpl,r5
      00055E 8E 83            [24] 1562 	mov	dph,r6
      000560 8F F0            [24] 1563 	mov	b,r7
      000562 12r00r00         [24] 1564 	lcall	__gptrget
      000565 FC               [12] 1565 	mov	r4,a
      000566 60 1C            [24] 1566 	jz	00147$
      000568 7B 00            [12] 1567 	mov	r3,#0x00
      00056A 8C 82            [24] 1568 	mov	dpl,r4
      00056C 8B 83            [24] 1569 	mov	dph,r3
      00056E C0 07            [24] 1570 	push	ar7
      000570 C0 06            [24] 1571 	push	ar6
      000572 C0 05            [24] 1572 	push	ar5
      000574 12r00r00         [24] 1573 	lcall	_putchar
      000577 D0 05            [24] 1574 	pop	ar5
      000579 D0 06            [24] 1575 	pop	ar6
      00057B D0 07            [24] 1576 	pop	ar7
      00057D 0D               [12] 1577 	inc	r5
                                   1578 ;	disp.c:276: printstr("TERM\r\n");
      00057E BD 00 DB         [24] 1579 	cjne	r5,#0x00,00178$
      000581 0E               [12] 1580 	inc	r6
      000582 80 D8            [24] 1581 	sjmp	00178$
      000584                       1582 00147$:
                                   1583 ;	disp.c:277: (void)getchar();
      000584 12r00r00         [24] 1584 	lcall	_getchar
                                   1585 ;	disp.c:279: PCON |= 2;
      000587 43 87 02         [24] 1586 	orl	_PCON,#0x02
                                   1587 ;	disp.c:281: return;
                                   1588 ;	disp.c:282: }
      00058A 85*00 81         [24] 1589 	mov	sp,_bp
      00058D D0*00            [24] 1590 	pop	_bp
      00058F 22               [24] 1591 	ret
                                   1592 	.area CSEG    (CODE)
                                   1593 	.area CONST   (CODE)
                                   1594 	.area CONST   (CODE)
      000000                       1595 ___str_0:
      000000 50 41 55 53 45        1596 	.ascii "PAUSE"
      000005 0D                    1597 	.db 0x0d
      000006 0A                    1598 	.db 0x0a
      000007 00                    1599 	.db 0x00
                                   1600 	.area CSEG    (CODE)
                                   1601 	.area CONST   (CODE)
      000008                       1602 ___str_1:
      000008 52 45 53 45 54        1603 	.ascii "RESET"
      00000D 0D                    1604 	.db 0x0d
      00000E 0A                    1605 	.db 0x0a
      00000F 00                    1606 	.db 0x00
                                   1607 	.area CSEG    (CODE)
                                   1608 	.area CONST   (CODE)
      000010                       1609 ___str_2:
      000010 50 20 53 50 20 49 20  1610 	.ascii "P SP I L ENT S R T START MSG "
             4C 20 45 4E 54 20 53
             20 52 20 54 20 53 54
             41 52 54 20 4D 53 47
             20
      00002D 22                    1611 	.db 0x22
      00002E 00                    1612 	.db 0x00
                                   1613 	.area CSEG    (CODE)
                                   1614 	.area CONST   (CODE)
      00002F                       1615 ___str_3:
      00002F 22                    1616 	.db 0x22
      000030 0D                    1617 	.db 0x0d
      000031 0A                    1618 	.db 0x0a
      000032 00                    1619 	.db 0x00
                                   1620 	.area CSEG    (CODE)
                                   1621 	.area CONST   (CODE)
      000033                       1622 ___str_4:
      000033 4C 4F 41 44 20        1623 	.ascii "LOAD "
      000038 00                    1624 	.db 0x00
                                   1625 	.area CSEG    (CODE)
                                   1626 	.area CONST   (CODE)
      000039                       1627 ___str_5:
      000039 0D                    1628 	.db 0x0d
      00003A 0A                    1629 	.db 0x0a
      00003B 00                    1630 	.db 0x00
                                   1631 	.area CSEG    (CODE)
                                   1632 	.area CONST   (CODE)
      00003C                       1633 ___str_6:
      00003C 4D 53 47 20           1634 	.ascii "MSG "
      000040 22                    1635 	.db 0x22
      000041 00                    1636 	.db 0x00
                                   1637 	.area CSEG    (CODE)
                                   1638 	.area CONST   (CODE)
      000042                       1639 ___str_7:
      000042 54 45 52 4D           1640 	.ascii "TERM"
      000046 0D                    1641 	.db 0x0d
      000047 0A                    1642 	.db 0x0a
      000048 00                    1643 	.db 0x00
                                   1644 	.area CSEG    (CODE)
                                   1645 	.area CONST   (CODE)
      000049                       1646 ___str_8:
      000049 43 41 45 44 49 54 45  1647 	.ascii "CAEDITE EOS : NOVIT ENIM DOMINVS QVI SVNT EIVS : "
             20 45 4F 53 20 3A 20
             4E 4F 56 49 54 20 45
             4E 49 4D 20 44 4F 4D
             49 4E 56 53 20 51 56
             49 20 53 56 4E 54 20
             45 49 56 53 20 3A 20
      00007A 00                    1648 	.db 0x00
                                   1649 	.area CSEG    (CODE)
                                   1650 	.area XINIT   (CODE)
      000000                       1651 __xinit___ft_font6x8:
      000000 00                    1652 	.db #0x00	; 0
      000001 00                    1653 	.db #0x00	; 0
      000002 00                    1654 	.db #0x00	; 0
      000003 00                    1655 	.db #0x00	; 0
      000004 00                    1656 	.db #0x00	; 0
      000005 00                    1657 	.db #0x00	; 0
      000006 00                    1658 	.db #0x00	; 0
      000007 00                    1659 	.db #0x00	; 0
      000008 1C                    1660 	.db #0x1c	; 28
      000009 22                    1661 	.db #0x22	; 34
      00000A 36                    1662 	.db #0x36	; 54	'6'
      00000B 22                    1663 	.db #0x22	; 34
      00000C 2A                    1664 	.db #0x2a	; 42
      00000D 22                    1665 	.db #0x22	; 34
      00000E 1C                    1666 	.db #0x1c	; 28
      00000F 00                    1667 	.db #0x00	; 0
      000010 1C                    1668 	.db #0x1c	; 28
      000011 3E                    1669 	.db #0x3e	; 62
      000012 2A                    1670 	.db #0x2a	; 42
      000013 3E                    1671 	.db #0x3e	; 62
      000014 22                    1672 	.db #0x22	; 34
      000015 3E                    1673 	.db #0x3e	; 62
      000016 1C                    1674 	.db #0x1c	; 28
      000017 00                    1675 	.db #0x00	; 0
      000018 00                    1676 	.db #0x00	; 0
      000019 14                    1677 	.db #0x14	; 20
      00001A 3E                    1678 	.db #0x3e	; 62
      00001B 3E                    1679 	.db #0x3e	; 62
      00001C 3E                    1680 	.db #0x3e	; 62
      00001D 1C                    1681 	.db #0x1c	; 28
      00001E 08                    1682 	.db #0x08	; 8
      00001F 00                    1683 	.db #0x00	; 0
      000020 00                    1684 	.db #0x00	; 0
      000021 08                    1685 	.db #0x08	; 8
      000022 1C                    1686 	.db #0x1c	; 28
      000023 3E                    1687 	.db #0x3e	; 62
      000024 3E                    1688 	.db #0x3e	; 62
      000025 1C                    1689 	.db #0x1c	; 28
      000026 08                    1690 	.db #0x08	; 8
      000027 00                    1691 	.db #0x00	; 0
      000028 08                    1692 	.db #0x08	; 8
      000029 1C                    1693 	.db #0x1c	; 28
      00002A 1C                    1694 	.db #0x1c	; 28
      00002B 08                    1695 	.db #0x08	; 8
      00002C 3E                    1696 	.db #0x3e	; 62
      00002D 3E                    1697 	.db #0x3e	; 62
      00002E 08                    1698 	.db #0x08	; 8
      00002F 00                    1699 	.db #0x00	; 0
      000030 00                    1700 	.db #0x00	; 0
      000031 08                    1701 	.db #0x08	; 8
      000032 1C                    1702 	.db #0x1c	; 28
      000033 3E                    1703 	.db #0x3e	; 62
      000034 3E                    1704 	.db #0x3e	; 62
      000035 08                    1705 	.db #0x08	; 8
      000036 1C                    1706 	.db #0x1c	; 28
      000037 00                    1707 	.db #0x00	; 0
      000038 00                    1708 	.db #0x00	; 0
      000039 00                    1709 	.db #0x00	; 0
      00003A 00                    1710 	.db #0x00	; 0
      00003B 0C                    1711 	.db #0x0c	; 12
      00003C 0C                    1712 	.db #0x0c	; 12
      00003D 00                    1713 	.db #0x00	; 0
      00003E 00                    1714 	.db #0x00	; 0
      00003F 00                    1715 	.db #0x00	; 0
      000040 3F                    1716 	.db #0x3f	; 63
      000041 3F                    1717 	.db #0x3f	; 63
      000042 3F                    1718 	.db #0x3f	; 63
      000043 33                    1719 	.db #0x33	; 51	'3'
      000044 33                    1720 	.db #0x33	; 51	'3'
      000045 3F                    1721 	.db #0x3f	; 63
      000046 3F                    1722 	.db #0x3f	; 63
      000047 3F                    1723 	.db #0x3f	; 63
      000048 00                    1724 	.db #0x00	; 0
      000049 00                    1725 	.db #0x00	; 0
      00004A 1E                    1726 	.db #0x1e	; 30
      00004B 12                    1727 	.db #0x12	; 18
      00004C 12                    1728 	.db #0x12	; 18
      00004D 1E                    1729 	.db #0x1e	; 30
      00004E 00                    1730 	.db #0x00	; 0
      00004F 00                    1731 	.db #0x00	; 0
      000050 3F                    1732 	.db #0x3f	; 63
      000051 3F                    1733 	.db #0x3f	; 63
      000052 21                    1734 	.db #0x21	; 33
      000053 2D                    1735 	.db #0x2d	; 45
      000054 2D                    1736 	.db #0x2d	; 45
      000055 21                    1737 	.db #0x21	; 33
      000056 3F                    1738 	.db #0x3f	; 63
      000057 3F                    1739 	.db #0x3f	; 63
      000058 00                    1740 	.db #0x00	; 0
      000059 38                    1741 	.db #0x38	; 56	'8'
      00005A 30                    1742 	.db #0x30	; 48	'0'
      00005B 2C                    1743 	.db #0x2c	; 44
      00005C 12                    1744 	.db #0x12	; 18
      00005D 12                    1745 	.db #0x12	; 18
      00005E 0C                    1746 	.db #0x0c	; 12
      00005F 00                    1747 	.db #0x00	; 0
      000060 1C                    1748 	.db #0x1c	; 28
      000061 22                    1749 	.db #0x22	; 34
      000062 22                    1750 	.db #0x22	; 34
      000063 1C                    1751 	.db #0x1c	; 28
      000064 08                    1752 	.db #0x08	; 8
      000065 1C                    1753 	.db #0x1c	; 28
      000066 08                    1754 	.db #0x08	; 8
      000067 00                    1755 	.db #0x00	; 0
      000068 08                    1756 	.db #0x08	; 8
      000069 18                    1757 	.db #0x18	; 24
      00006A 28                    1758 	.db #0x28	; 40
      00006B 08                    1759 	.db #0x08	; 8
      00006C 0C                    1760 	.db #0x0c	; 12
      00006D 0E                    1761 	.db #0x0e	; 14
      00006E 06                    1762 	.db #0x06	; 6
      00006F 00                    1763 	.db #0x00	; 0
      000070 30                    1764 	.db #0x30	; 48	'0'
      000071 2C                    1765 	.db #0x2c	; 44
      000072 34                    1766 	.db #0x34	; 52	'4'
      000073 2C                    1767 	.db #0x2c	; 44
      000074 34                    1768 	.db #0x34	; 52	'4'
      000075 36                    1769 	.db #0x36	; 54	'6'
      000076 06                    1770 	.db #0x06	; 6
      000077 00                    1771 	.db #0x00	; 0
      000078 00                    1772 	.db #0x00	; 0
      000079 2A                    1773 	.db #0x2a	; 42
      00007A 1C                    1774 	.db #0x1c	; 28
      00007B 36                    1775 	.db #0x36	; 54	'6'
      00007C 1C                    1776 	.db #0x1c	; 28
      00007D 2A                    1777 	.db #0x2a	; 42
      00007E 00                    1778 	.db #0x00	; 0
      00007F 00                    1779 	.db #0x00	; 0
      000080 04                    1780 	.db #0x04	; 4
      000081 0C                    1781 	.db #0x0c	; 12
      000082 1C                    1782 	.db #0x1c	; 28
      000083 3C                    1783 	.db #0x3c	; 60
      000084 1C                    1784 	.db #0x1c	; 28
      000085 0C                    1785 	.db #0x0c	; 12
      000086 04                    1786 	.db #0x04	; 4
      000087 00                    1787 	.db #0x00	; 0
      000088 10                    1788 	.db #0x10	; 16
      000089 18                    1789 	.db #0x18	; 24
      00008A 1C                    1790 	.db #0x1c	; 28
      00008B 1E                    1791 	.db #0x1e	; 30
      00008C 1C                    1792 	.db #0x1c	; 28
      00008D 18                    1793 	.db #0x18	; 24
      00008E 10                    1794 	.db #0x10	; 16
      00008F 00                    1795 	.db #0x00	; 0
      000090 08                    1796 	.db #0x08	; 8
      000091 1C                    1797 	.db #0x1c	; 28
      000092 3E                    1798 	.db #0x3e	; 62
      000093 08                    1799 	.db #0x08	; 8
      000094 3E                    1800 	.db #0x3e	; 62
      000095 1C                    1801 	.db #0x1c	; 28
      000096 08                    1802 	.db #0x08	; 8
      000097 00                    1803 	.db #0x00	; 0
      000098 14                    1804 	.db #0x14	; 20
      000099 14                    1805 	.db #0x14	; 20
      00009A 14                    1806 	.db #0x14	; 20
      00009B 14                    1807 	.db #0x14	; 20
      00009C 14                    1808 	.db #0x14	; 20
      00009D 00                    1809 	.db #0x00	; 0
      00009E 14                    1810 	.db #0x14	; 20
      00009F 00                    1811 	.db #0x00	; 0
      0000A0 3C                    1812 	.db #0x3c	; 60
      0000A1 2A                    1813 	.db #0x2a	; 42
      0000A2 2A                    1814 	.db #0x2a	; 42
      0000A3 2C                    1815 	.db #0x2c	; 44
      0000A4 28                    1816 	.db #0x28	; 40
      0000A5 28                    1817 	.db #0x28	; 40
      0000A6 28                    1818 	.db #0x28	; 40
      0000A7 00                    1819 	.db #0x00	; 0
      0000A8 1C                    1820 	.db #0x1c	; 28
      0000A9 22                    1821 	.db #0x22	; 34
      0000AA 0C                    1822 	.db #0x0c	; 12
      0000AB 14                    1823 	.db #0x14	; 20
      0000AC 18                    1824 	.db #0x18	; 24
      0000AD 22                    1825 	.db #0x22	; 34
      0000AE 1C                    1826 	.db #0x1c	; 28
      0000AF 00                    1827 	.db #0x00	; 0
      0000B0 00                    1828 	.db #0x00	; 0
      0000B1 00                    1829 	.db #0x00	; 0
      0000B2 00                    1830 	.db #0x00	; 0
      0000B3 00                    1831 	.db #0x00	; 0
      0000B4 00                    1832 	.db #0x00	; 0
      0000B5 1E                    1833 	.db #0x1e	; 30
      0000B6 1E                    1834 	.db #0x1e	; 30
      0000B7 00                    1835 	.db #0x00	; 0
      0000B8 08                    1836 	.db #0x08	; 8
      0000B9 1C                    1837 	.db #0x1c	; 28
      0000BA 3E                    1838 	.db #0x3e	; 62
      0000BB 08                    1839 	.db #0x08	; 8
      0000BC 3E                    1840 	.db #0x3e	; 62
      0000BD 1C                    1841 	.db #0x1c	; 28
      0000BE 08                    1842 	.db #0x08	; 8
      0000BF 1C                    1843 	.db #0x1c	; 28
      0000C0 08                    1844 	.db #0x08	; 8
      0000C1 1C                    1845 	.db #0x1c	; 28
      0000C2 3E                    1846 	.db #0x3e	; 62
      0000C3 08                    1847 	.db #0x08	; 8
      0000C4 08                    1848 	.db #0x08	; 8
      0000C5 08                    1849 	.db #0x08	; 8
      0000C6 08                    1850 	.db #0x08	; 8
      0000C7 00                    1851 	.db #0x00	; 0
      0000C8 08                    1852 	.db #0x08	; 8
      0000C9 08                    1853 	.db #0x08	; 8
      0000CA 08                    1854 	.db #0x08	; 8
      0000CB 08                    1855 	.db #0x08	; 8
      0000CC 3E                    1856 	.db #0x3e	; 62
      0000CD 1C                    1857 	.db #0x1c	; 28
      0000CE 08                    1858 	.db #0x08	; 8
      0000CF 00                    1859 	.db #0x00	; 0
      0000D0 00                    1860 	.db #0x00	; 0
      0000D1 08                    1861 	.db #0x08	; 8
      0000D2 18                    1862 	.db #0x18	; 24
      0000D3 3E                    1863 	.db #0x3e	; 62
      0000D4 18                    1864 	.db #0x18	; 24
      0000D5 08                    1865 	.db #0x08	; 8
      0000D6 00                    1866 	.db #0x00	; 0
      0000D7 00                    1867 	.db #0x00	; 0
      0000D8 00                    1868 	.db #0x00	; 0
      0000D9 08                    1869 	.db #0x08	; 8
      0000DA 0C                    1870 	.db #0x0c	; 12
      0000DB 3E                    1871 	.db #0x3e	; 62
      0000DC 0C                    1872 	.db #0x0c	; 12
      0000DD 08                    1873 	.db #0x08	; 8
      0000DE 00                    1874 	.db #0x00	; 0
      0000DF 00                    1875 	.db #0x00	; 0
      0000E0 00                    1876 	.db #0x00	; 0
      0000E1 00                    1877 	.db #0x00	; 0
      0000E2 00                    1878 	.db #0x00	; 0
      0000E3 02                    1879 	.db #0x02	; 2
      0000E4 02                    1880 	.db #0x02	; 2
      0000E5 02                    1881 	.db #0x02	; 2
      0000E6 3E                    1882 	.db #0x3e	; 62
      0000E7 00                    1883 	.db #0x00	; 0
      0000E8 00                    1884 	.db #0x00	; 0
      0000E9 14                    1885 	.db #0x14	; 20
      0000EA 14                    1886 	.db #0x14	; 20
      0000EB 3E                    1887 	.db #0x3e	; 62
      0000EC 14                    1888 	.db #0x14	; 20
      0000ED 14                    1889 	.db #0x14	; 20
      0000EE 00                    1890 	.db #0x00	; 0
      0000EF 00                    1891 	.db #0x00	; 0
      0000F0 08                    1892 	.db #0x08	; 8
      0000F1 08                    1893 	.db #0x08	; 8
      0000F2 1C                    1894 	.db #0x1c	; 28
      0000F3 1C                    1895 	.db #0x1c	; 28
      0000F4 3E                    1896 	.db #0x3e	; 62
      0000F5 3E                    1897 	.db #0x3e	; 62
      0000F6 00                    1898 	.db #0x00	; 0
      0000F7 00                    1899 	.db #0x00	; 0
      0000F8 3E                    1900 	.db #0x3e	; 62
      0000F9 3E                    1901 	.db #0x3e	; 62
      0000FA 1C                    1902 	.db #0x1c	; 28
      0000FB 1C                    1903 	.db #0x1c	; 28
      0000FC 08                    1904 	.db #0x08	; 8
      0000FD 08                    1905 	.db #0x08	; 8
      0000FE 00                    1906 	.db #0x00	; 0
      0000FF 00                    1907 	.db #0x00	; 0
      000100 00                    1908 	.db #0x00	; 0
      000101 00                    1909 	.db #0x00	; 0
      000102 00                    1910 	.db #0x00	; 0
      000103 00                    1911 	.db #0x00	; 0
      000104 00                    1912 	.db #0x00	; 0
      000105 00                    1913 	.db #0x00	; 0
      000106 00                    1914 	.db #0x00	; 0
      000107 00                    1915 	.db #0x00	; 0
      000108 08                    1916 	.db #0x08	; 8
      000109 1C                    1917 	.db #0x1c	; 28
      00010A 1C                    1918 	.db #0x1c	; 28
      00010B 08                    1919 	.db #0x08	; 8
      00010C 08                    1920 	.db #0x08	; 8
      00010D 00                    1921 	.db #0x00	; 0
      00010E 08                    1922 	.db #0x08	; 8
      00010F 00                    1923 	.db #0x00	; 0
      000110 36                    1924 	.db #0x36	; 54	'6'
      000111 36                    1925 	.db #0x36	; 54	'6'
      000112 12                    1926 	.db #0x12	; 18
      000113 00                    1927 	.db #0x00	; 0
      000114 00                    1928 	.db #0x00	; 0
      000115 00                    1929 	.db #0x00	; 0
      000116 00                    1930 	.db #0x00	; 0
      000117 00                    1931 	.db #0x00	; 0
      000118 00                    1932 	.db #0x00	; 0
      000119 14                    1933 	.db #0x14	; 20
      00011A 3E                    1934 	.db #0x3e	; 62
      00011B 14                    1935 	.db #0x14	; 20
      00011C 14                    1936 	.db #0x14	; 20
      00011D 3E                    1937 	.db #0x3e	; 62
      00011E 14                    1938 	.db #0x14	; 20
      00011F 00                    1939 	.db #0x00	; 0
      000120 04                    1940 	.db #0x04	; 4
      000121 1C                    1941 	.db #0x1c	; 28
      000122 02                    1942 	.db #0x02	; 2
      000123 0C                    1943 	.db #0x0c	; 12
      000124 10                    1944 	.db #0x10	; 16
      000125 0E                    1945 	.db #0x0e	; 14
      000126 08                    1946 	.db #0x08	; 8
      000127 00                    1947 	.db #0x00	; 0
      000128 26                    1948 	.db #0x26	; 38
      000129 26                    1949 	.db #0x26	; 38
      00012A 10                    1950 	.db #0x10	; 16
      00012B 08                    1951 	.db #0x08	; 8
      00012C 04                    1952 	.db #0x04	; 4
      00012D 32                    1953 	.db #0x32	; 50	'2'
      00012E 32                    1954 	.db #0x32	; 50	'2'
      00012F 00                    1955 	.db #0x00	; 0
      000130 04                    1956 	.db #0x04	; 4
      000131 0A                    1957 	.db #0x0a	; 10
      000132 0A                    1958 	.db #0x0a	; 10
      000133 04                    1959 	.db #0x04	; 4
      000134 2A                    1960 	.db #0x2a	; 42
      000135 12                    1961 	.db #0x12	; 18
      000136 2C                    1962 	.db #0x2c	; 44
      000137 00                    1963 	.db #0x00	; 0
      000138 0C                    1964 	.db #0x0c	; 12
      000139 0C                    1965 	.db #0x0c	; 12
      00013A 04                    1966 	.db #0x04	; 4
      00013B 00                    1967 	.db #0x00	; 0
      00013C 00                    1968 	.db #0x00	; 0
      00013D 00                    1969 	.db #0x00	; 0
      00013E 00                    1970 	.db #0x00	; 0
      00013F 00                    1971 	.db #0x00	; 0
      000140 08                    1972 	.db #0x08	; 8
      000141 04                    1973 	.db #0x04	; 4
      000142 04                    1974 	.db #0x04	; 4
      000143 04                    1975 	.db #0x04	; 4
      000144 04                    1976 	.db #0x04	; 4
      000145 04                    1977 	.db #0x04	; 4
      000146 08                    1978 	.db #0x08	; 8
      000147 00                    1979 	.db #0x00	; 0
      000148 04                    1980 	.db #0x04	; 4
      000149 08                    1981 	.db #0x08	; 8
      00014A 08                    1982 	.db #0x08	; 8
      00014B 08                    1983 	.db #0x08	; 8
      00014C 08                    1984 	.db #0x08	; 8
      00014D 08                    1985 	.db #0x08	; 8
      00014E 04                    1986 	.db #0x04	; 4
      00014F 00                    1987 	.db #0x00	; 0
      000150 00                    1988 	.db #0x00	; 0
      000151 14                    1989 	.db #0x14	; 20
      000152 1C                    1990 	.db #0x1c	; 28
      000153 3E                    1991 	.db #0x3e	; 62
      000154 1C                    1992 	.db #0x1c	; 28
      000155 14                    1993 	.db #0x14	; 20
      000156 00                    1994 	.db #0x00	; 0
      000157 00                    1995 	.db #0x00	; 0
      000158 00                    1996 	.db #0x00	; 0
      000159 08                    1997 	.db #0x08	; 8
      00015A 08                    1998 	.db #0x08	; 8
      00015B 3E                    1999 	.db #0x3e	; 62
      00015C 08                    2000 	.db #0x08	; 8
      00015D 08                    2001 	.db #0x08	; 8
      00015E 00                    2002 	.db #0x00	; 0
      00015F 00                    2003 	.db #0x00	; 0
      000160 00                    2004 	.db #0x00	; 0
      000161 00                    2005 	.db #0x00	; 0
      000162 00                    2006 	.db #0x00	; 0
      000163 00                    2007 	.db #0x00	; 0
      000164 00                    2008 	.db #0x00	; 0
      000165 0C                    2009 	.db #0x0c	; 12
      000166 0C                    2010 	.db #0x0c	; 12
      000167 04                    2011 	.db #0x04	; 4
      000168 00                    2012 	.db #0x00	; 0
      000169 00                    2013 	.db #0x00	; 0
      00016A 00                    2014 	.db #0x00	; 0
      00016B 3E                    2015 	.db #0x3e	; 62
      00016C 00                    2016 	.db #0x00	; 0
      00016D 00                    2017 	.db #0x00	; 0
      00016E 00                    2018 	.db #0x00	; 0
      00016F 00                    2019 	.db #0x00	; 0
      000170 00                    2020 	.db #0x00	; 0
      000171 00                    2021 	.db #0x00	; 0
      000172 00                    2022 	.db #0x00	; 0
      000173 00                    2023 	.db #0x00	; 0
      000174 00                    2024 	.db #0x00	; 0
      000175 0C                    2025 	.db #0x0c	; 12
      000176 0C                    2026 	.db #0x0c	; 12
      000177 00                    2027 	.db #0x00	; 0
      000178 00                    2028 	.db #0x00	; 0
      000179 20                    2029 	.db #0x20	; 32
      00017A 10                    2030 	.db #0x10	; 16
      00017B 08                    2031 	.db #0x08	; 8
      00017C 04                    2032 	.db #0x04	; 4
      00017D 02                    2033 	.db #0x02	; 2
      00017E 00                    2034 	.db #0x00	; 0
      00017F 00                    2035 	.db #0x00	; 0
      000180 1C                    2036 	.db #0x1c	; 28
      000181 22                    2037 	.db #0x22	; 34
      000182 32                    2038 	.db #0x32	; 50	'2'
      000183 2A                    2039 	.db #0x2a	; 42
      000184 26                    2040 	.db #0x26	; 38
      000185 22                    2041 	.db #0x22	; 34
      000186 1C                    2042 	.db #0x1c	; 28
      000187 00                    2043 	.db #0x00	; 0
      000188 08                    2044 	.db #0x08	; 8
      000189 0C                    2045 	.db #0x0c	; 12
      00018A 08                    2046 	.db #0x08	; 8
      00018B 08                    2047 	.db #0x08	; 8
      00018C 08                    2048 	.db #0x08	; 8
      00018D 08                    2049 	.db #0x08	; 8
      00018E 1C                    2050 	.db #0x1c	; 28
      00018F 00                    2051 	.db #0x00	; 0
      000190 1C                    2052 	.db #0x1c	; 28
      000191 22                    2053 	.db #0x22	; 34
      000192 20                    2054 	.db #0x20	; 32
      000193 18                    2055 	.db #0x18	; 24
      000194 04                    2056 	.db #0x04	; 4
      000195 02                    2057 	.db #0x02	; 2
      000196 3E                    2058 	.db #0x3e	; 62
      000197 00                    2059 	.db #0x00	; 0
      000198 1C                    2060 	.db #0x1c	; 28
      000199 22                    2061 	.db #0x22	; 34
      00019A 20                    2062 	.db #0x20	; 32
      00019B 1C                    2063 	.db #0x1c	; 28
      00019C 20                    2064 	.db #0x20	; 32
      00019D 22                    2065 	.db #0x22	; 34
      00019E 1C                    2066 	.db #0x1c	; 28
      00019F 00                    2067 	.db #0x00	; 0
      0001A0 10                    2068 	.db #0x10	; 16
      0001A1 18                    2069 	.db #0x18	; 24
      0001A2 14                    2070 	.db #0x14	; 20
      0001A3 12                    2071 	.db #0x12	; 18
      0001A4 3E                    2072 	.db #0x3e	; 62
      0001A5 10                    2073 	.db #0x10	; 16
      0001A6 10                    2074 	.db #0x10	; 16
      0001A7 00                    2075 	.db #0x00	; 0
      0001A8 3E                    2076 	.db #0x3e	; 62
      0001A9 02                    2077 	.db #0x02	; 2
      0001AA 02                    2078 	.db #0x02	; 2
      0001AB 1E                    2079 	.db #0x1e	; 30
      0001AC 20                    2080 	.db #0x20	; 32
      0001AD 22                    2081 	.db #0x22	; 34
      0001AE 1C                    2082 	.db #0x1c	; 28
      0001AF 00                    2083 	.db #0x00	; 0
      0001B0 18                    2084 	.db #0x18	; 24
      0001B1 04                    2085 	.db #0x04	; 4
      0001B2 02                    2086 	.db #0x02	; 2
      0001B3 1E                    2087 	.db #0x1e	; 30
      0001B4 22                    2088 	.db #0x22	; 34
      0001B5 22                    2089 	.db #0x22	; 34
      0001B6 1C                    2090 	.db #0x1c	; 28
      0001B7 00                    2091 	.db #0x00	; 0
      0001B8 3E                    2092 	.db #0x3e	; 62
      0001B9 20                    2093 	.db #0x20	; 32
      0001BA 10                    2094 	.db #0x10	; 16
      0001BB 08                    2095 	.db #0x08	; 8
      0001BC 04                    2096 	.db #0x04	; 4
      0001BD 04                    2097 	.db #0x04	; 4
      0001BE 04                    2098 	.db #0x04	; 4
      0001BF 00                    2099 	.db #0x00	; 0
      0001C0 1C                    2100 	.db #0x1c	; 28
      0001C1 22                    2101 	.db #0x22	; 34
      0001C2 22                    2102 	.db #0x22	; 34
      0001C3 1C                    2103 	.db #0x1c	; 28
      0001C4 22                    2104 	.db #0x22	; 34
      0001C5 22                    2105 	.db #0x22	; 34
      0001C6 1C                    2106 	.db #0x1c	; 28
      0001C7 00                    2107 	.db #0x00	; 0
      0001C8 1C                    2108 	.db #0x1c	; 28
      0001C9 22                    2109 	.db #0x22	; 34
      0001CA 22                    2110 	.db #0x22	; 34
      0001CB 3C                    2111 	.db #0x3c	; 60
      0001CC 20                    2112 	.db #0x20	; 32
      0001CD 10                    2113 	.db #0x10	; 16
      0001CE 0C                    2114 	.db #0x0c	; 12
      0001CF 00                    2115 	.db #0x00	; 0
      0001D0 00                    2116 	.db #0x00	; 0
      0001D1 00                    2117 	.db #0x00	; 0
      0001D2 0C                    2118 	.db #0x0c	; 12
      0001D3 0C                    2119 	.db #0x0c	; 12
      0001D4 00                    2120 	.db #0x00	; 0
      0001D5 0C                    2121 	.db #0x0c	; 12
      0001D6 0C                    2122 	.db #0x0c	; 12
      0001D7 00                    2123 	.db #0x00	; 0
      0001D8 00                    2124 	.db #0x00	; 0
      0001D9 00                    2125 	.db #0x00	; 0
      0001DA 0C                    2126 	.db #0x0c	; 12
      0001DB 0C                    2127 	.db #0x0c	; 12
      0001DC 00                    2128 	.db #0x00	; 0
      0001DD 0C                    2129 	.db #0x0c	; 12
      0001DE 0C                    2130 	.db #0x0c	; 12
      0001DF 04                    2131 	.db #0x04	; 4
      0001E0 10                    2132 	.db #0x10	; 16
      0001E1 08                    2133 	.db #0x08	; 8
      0001E2 04                    2134 	.db #0x04	; 4
      0001E3 02                    2135 	.db #0x02	; 2
      0001E4 04                    2136 	.db #0x04	; 4
      0001E5 08                    2137 	.db #0x08	; 8
      0001E6 10                    2138 	.db #0x10	; 16
      0001E7 00                    2139 	.db #0x00	; 0
      0001E8 00                    2140 	.db #0x00	; 0
      0001E9 00                    2141 	.db #0x00	; 0
      0001EA 3E                    2142 	.db #0x3e	; 62
      0001EB 00                    2143 	.db #0x00	; 0
      0001EC 00                    2144 	.db #0x00	; 0
      0001ED 3E                    2145 	.db #0x3e	; 62
      0001EE 00                    2146 	.db #0x00	; 0
      0001EF 00                    2147 	.db #0x00	; 0
      0001F0 04                    2148 	.db #0x04	; 4
      0001F1 08                    2149 	.db #0x08	; 8
      0001F2 10                    2150 	.db #0x10	; 16
      0001F3 20                    2151 	.db #0x20	; 32
      0001F4 10                    2152 	.db #0x10	; 16
      0001F5 08                    2153 	.db #0x08	; 8
      0001F6 04                    2154 	.db #0x04	; 4
      0001F7 00                    2155 	.db #0x00	; 0
      0001F8 1C                    2156 	.db #0x1c	; 28
      0001F9 22                    2157 	.db #0x22	; 34
      0001FA 20                    2158 	.db #0x20	; 32
      0001FB 18                    2159 	.db #0x18	; 24
      0001FC 08                    2160 	.db #0x08	; 8
      0001FD 00                    2161 	.db #0x00	; 0
      0001FE 08                    2162 	.db #0x08	; 8
      0001FF 00                    2163 	.db #0x00	; 0
      000200 1C                    2164 	.db #0x1c	; 28
      000201 22                    2165 	.db #0x22	; 34
      000202 3A                    2166 	.db #0x3a	; 58
      000203 2A                    2167 	.db #0x2a	; 42
      000204 3A                    2168 	.db #0x3a	; 58
      000205 02                    2169 	.db #0x02	; 2
      000206 1C                    2170 	.db #0x1c	; 28
      000207 00                    2171 	.db #0x00	; 0
      000208 1C                    2172 	.db #0x1c	; 28
      000209 22                    2173 	.db #0x22	; 34
      00020A 22                    2174 	.db #0x22	; 34
      00020B 22                    2175 	.db #0x22	; 34
      00020C 3E                    2176 	.db #0x3e	; 62
      00020D 22                    2177 	.db #0x22	; 34
      00020E 22                    2178 	.db #0x22	; 34
      00020F 00                    2179 	.db #0x00	; 0
      000210 1E                    2180 	.db #0x1e	; 30
      000211 22                    2181 	.db #0x22	; 34
      000212 22                    2182 	.db #0x22	; 34
      000213 1E                    2183 	.db #0x1e	; 30
      000214 22                    2184 	.db #0x22	; 34
      000215 22                    2185 	.db #0x22	; 34
      000216 1E                    2186 	.db #0x1e	; 30
      000217 00                    2187 	.db #0x00	; 0
      000218 1C                    2188 	.db #0x1c	; 28
      000219 22                    2189 	.db #0x22	; 34
      00021A 02                    2190 	.db #0x02	; 2
      00021B 02                    2191 	.db #0x02	; 2
      00021C 02                    2192 	.db #0x02	; 2
      00021D 22                    2193 	.db #0x22	; 34
      00021E 1C                    2194 	.db #0x1c	; 28
      00021F 00                    2195 	.db #0x00	; 0
      000220 1E                    2196 	.db #0x1e	; 30
      000221 22                    2197 	.db #0x22	; 34
      000222 22                    2198 	.db #0x22	; 34
      000223 22                    2199 	.db #0x22	; 34
      000224 22                    2200 	.db #0x22	; 34
      000225 22                    2201 	.db #0x22	; 34
      000226 1E                    2202 	.db #0x1e	; 30
      000227 00                    2203 	.db #0x00	; 0
      000228 3E                    2204 	.db #0x3e	; 62
      000229 02                    2205 	.db #0x02	; 2
      00022A 02                    2206 	.db #0x02	; 2
      00022B 1E                    2207 	.db #0x1e	; 30
      00022C 02                    2208 	.db #0x02	; 2
      00022D 02                    2209 	.db #0x02	; 2
      00022E 3E                    2210 	.db #0x3e	; 62
      00022F 00                    2211 	.db #0x00	; 0
      000230 3E                    2212 	.db #0x3e	; 62
      000231 02                    2213 	.db #0x02	; 2
      000232 02                    2214 	.db #0x02	; 2
      000233 1E                    2215 	.db #0x1e	; 30
      000234 02                    2216 	.db #0x02	; 2
      000235 02                    2217 	.db #0x02	; 2
      000236 02                    2218 	.db #0x02	; 2
      000237 00                    2219 	.db #0x00	; 0
      000238 1C                    2220 	.db #0x1c	; 28
      000239 22                    2221 	.db #0x22	; 34
      00023A 02                    2222 	.db #0x02	; 2
      00023B 3A                    2223 	.db #0x3a	; 58
      00023C 22                    2224 	.db #0x22	; 34
      00023D 22                    2225 	.db #0x22	; 34
      00023E 3C                    2226 	.db #0x3c	; 60
      00023F 00                    2227 	.db #0x00	; 0
      000240 22                    2228 	.db #0x22	; 34
      000241 22                    2229 	.db #0x22	; 34
      000242 22                    2230 	.db #0x22	; 34
      000243 3E                    2231 	.db #0x3e	; 62
      000244 22                    2232 	.db #0x22	; 34
      000245 22                    2233 	.db #0x22	; 34
      000246 22                    2234 	.db #0x22	; 34
      000247 00                    2235 	.db #0x00	; 0
      000248 1C                    2236 	.db #0x1c	; 28
      000249 08                    2237 	.db #0x08	; 8
      00024A 08                    2238 	.db #0x08	; 8
      00024B 08                    2239 	.db #0x08	; 8
      00024C 08                    2240 	.db #0x08	; 8
      00024D 08                    2241 	.db #0x08	; 8
      00024E 1C                    2242 	.db #0x1c	; 28
      00024F 00                    2243 	.db #0x00	; 0
      000250 20                    2244 	.db #0x20	; 32
      000251 20                    2245 	.db #0x20	; 32
      000252 20                    2246 	.db #0x20	; 32
      000253 20                    2247 	.db #0x20	; 32
      000254 22                    2248 	.db #0x22	; 34
      000255 22                    2249 	.db #0x22	; 34
      000256 1C                    2250 	.db #0x1c	; 28
      000257 00                    2251 	.db #0x00	; 0
      000258 22                    2252 	.db #0x22	; 34
      000259 12                    2253 	.db #0x12	; 18
      00025A 0A                    2254 	.db #0x0a	; 10
      00025B 06                    2255 	.db #0x06	; 6
      00025C 0A                    2256 	.db #0x0a	; 10
      00025D 12                    2257 	.db #0x12	; 18
      00025E 22                    2258 	.db #0x22	; 34
      00025F 00                    2259 	.db #0x00	; 0
      000260 02                    2260 	.db #0x02	; 2
      000261 02                    2261 	.db #0x02	; 2
      000262 02                    2262 	.db #0x02	; 2
      000263 02                    2263 	.db #0x02	; 2
      000264 02                    2264 	.db #0x02	; 2
      000265 02                    2265 	.db #0x02	; 2
      000266 3E                    2266 	.db #0x3e	; 62
      000267 00                    2267 	.db #0x00	; 0
      000268 22                    2268 	.db #0x22	; 34
      000269 36                    2269 	.db #0x36	; 54	'6'
      00026A 2A                    2270 	.db #0x2a	; 42
      00026B 22                    2271 	.db #0x22	; 34
      00026C 22                    2272 	.db #0x22	; 34
      00026D 22                    2273 	.db #0x22	; 34
      00026E 22                    2274 	.db #0x22	; 34
      00026F 00                    2275 	.db #0x00	; 0
      000270 22                    2276 	.db #0x22	; 34
      000271 26                    2277 	.db #0x26	; 38
      000272 2A                    2278 	.db #0x2a	; 42
      000273 32                    2279 	.db #0x32	; 50	'2'
      000274 22                    2280 	.db #0x22	; 34
      000275 22                    2281 	.db #0x22	; 34
      000276 22                    2282 	.db #0x22	; 34
      000277 00                    2283 	.db #0x00	; 0
      000278 1C                    2284 	.db #0x1c	; 28
      000279 22                    2285 	.db #0x22	; 34
      00027A 22                    2286 	.db #0x22	; 34
      00027B 22                    2287 	.db #0x22	; 34
      00027C 22                    2288 	.db #0x22	; 34
      00027D 22                    2289 	.db #0x22	; 34
      00027E 1C                    2290 	.db #0x1c	; 28
      00027F 00                    2291 	.db #0x00	; 0
      000280 1E                    2292 	.db #0x1e	; 30
      000281 22                    2293 	.db #0x22	; 34
      000282 22                    2294 	.db #0x22	; 34
      000283 1E                    2295 	.db #0x1e	; 30
      000284 02                    2296 	.db #0x02	; 2
      000285 02                    2297 	.db #0x02	; 2
      000286 02                    2298 	.db #0x02	; 2
      000287 00                    2299 	.db #0x00	; 0
      000288 1C                    2300 	.db #0x1c	; 28
      000289 22                    2301 	.db #0x22	; 34
      00028A 22                    2302 	.db #0x22	; 34
      00028B 22                    2303 	.db #0x22	; 34
      00028C 2A                    2304 	.db #0x2a	; 42
      00028D 12                    2305 	.db #0x12	; 18
      00028E 2C                    2306 	.db #0x2c	; 44
      00028F 00                    2307 	.db #0x00	; 0
      000290 1E                    2308 	.db #0x1e	; 30
      000291 22                    2309 	.db #0x22	; 34
      000292 22                    2310 	.db #0x22	; 34
      000293 1E                    2311 	.db #0x1e	; 30
      000294 12                    2312 	.db #0x12	; 18
      000295 22                    2313 	.db #0x22	; 34
      000296 22                    2314 	.db #0x22	; 34
      000297 00                    2315 	.db #0x00	; 0
      000298 1C                    2316 	.db #0x1c	; 28
      000299 22                    2317 	.db #0x22	; 34
      00029A 02                    2318 	.db #0x02	; 2
      00029B 1C                    2319 	.db #0x1c	; 28
      00029C 20                    2320 	.db #0x20	; 32
      00029D 22                    2321 	.db #0x22	; 34
      00029E 1C                    2322 	.db #0x1c	; 28
      00029F 00                    2323 	.db #0x00	; 0
      0002A0 3E                    2324 	.db #0x3e	; 62
      0002A1 08                    2325 	.db #0x08	; 8
      0002A2 08                    2326 	.db #0x08	; 8
      0002A3 08                    2327 	.db #0x08	; 8
      0002A4 08                    2328 	.db #0x08	; 8
      0002A5 08                    2329 	.db #0x08	; 8
      0002A6 08                    2330 	.db #0x08	; 8
      0002A7 00                    2331 	.db #0x00	; 0
      0002A8 22                    2332 	.db #0x22	; 34
      0002A9 22                    2333 	.db #0x22	; 34
      0002AA 22                    2334 	.db #0x22	; 34
      0002AB 22                    2335 	.db #0x22	; 34
      0002AC 22                    2336 	.db #0x22	; 34
      0002AD 22                    2337 	.db #0x22	; 34
      0002AE 1C                    2338 	.db #0x1c	; 28
      0002AF 00                    2339 	.db #0x00	; 0
      0002B0 22                    2340 	.db #0x22	; 34
      0002B1 22                    2341 	.db #0x22	; 34
      0002B2 22                    2342 	.db #0x22	; 34
      0002B3 22                    2343 	.db #0x22	; 34
      0002B4 22                    2344 	.db #0x22	; 34
      0002B5 14                    2345 	.db #0x14	; 20
      0002B6 08                    2346 	.db #0x08	; 8
      0002B7 00                    2347 	.db #0x00	; 0
      0002B8 22                    2348 	.db #0x22	; 34
      0002B9 22                    2349 	.db #0x22	; 34
      0002BA 2A                    2350 	.db #0x2a	; 42
      0002BB 2A                    2351 	.db #0x2a	; 42
      0002BC 2A                    2352 	.db #0x2a	; 42
      0002BD 2A                    2353 	.db #0x2a	; 42
      0002BE 14                    2354 	.db #0x14	; 20
      0002BF 00                    2355 	.db #0x00	; 0
      0002C0 22                    2356 	.db #0x22	; 34
      0002C1 22                    2357 	.db #0x22	; 34
      0002C2 14                    2358 	.db #0x14	; 20
      0002C3 08                    2359 	.db #0x08	; 8
      0002C4 14                    2360 	.db #0x14	; 20
      0002C5 22                    2361 	.db #0x22	; 34
      0002C6 22                    2362 	.db #0x22	; 34
      0002C7 00                    2363 	.db #0x00	; 0
      0002C8 22                    2364 	.db #0x22	; 34
      0002C9 22                    2365 	.db #0x22	; 34
      0002CA 22                    2366 	.db #0x22	; 34
      0002CB 14                    2367 	.db #0x14	; 20
      0002CC 08                    2368 	.db #0x08	; 8
      0002CD 08                    2369 	.db #0x08	; 8
      0002CE 08                    2370 	.db #0x08	; 8
      0002CF 00                    2371 	.db #0x00	; 0
      0002D0 1E                    2372 	.db #0x1e	; 30
      0002D1 10                    2373 	.db #0x10	; 16
      0002D2 08                    2374 	.db #0x08	; 8
      0002D3 04                    2375 	.db #0x04	; 4
      0002D4 02                    2376 	.db #0x02	; 2
      0002D5 02                    2377 	.db #0x02	; 2
      0002D6 1E                    2378 	.db #0x1e	; 30
      0002D7 00                    2379 	.db #0x00	; 0
      0002D8 1C                    2380 	.db #0x1c	; 28
      0002D9 04                    2381 	.db #0x04	; 4
      0002DA 04                    2382 	.db #0x04	; 4
      0002DB 04                    2383 	.db #0x04	; 4
      0002DC 04                    2384 	.db #0x04	; 4
      0002DD 04                    2385 	.db #0x04	; 4
      0002DE 1C                    2386 	.db #0x1c	; 28
      0002DF 00                    2387 	.db #0x00	; 0
      0002E0 00                    2388 	.db #0x00	; 0
      0002E1 02                    2389 	.db #0x02	; 2
      0002E2 04                    2390 	.db #0x04	; 4
      0002E3 08                    2391 	.db #0x08	; 8
      0002E4 10                    2392 	.db #0x10	; 16
      0002E5 20                    2393 	.db #0x20	; 32
      0002E6 00                    2394 	.db #0x00	; 0
      0002E7 00                    2395 	.db #0x00	; 0
      0002E8 1C                    2396 	.db #0x1c	; 28
      0002E9 10                    2397 	.db #0x10	; 16
      0002EA 10                    2398 	.db #0x10	; 16
      0002EB 10                    2399 	.db #0x10	; 16
      0002EC 10                    2400 	.db #0x10	; 16
      0002ED 10                    2401 	.db #0x10	; 16
      0002EE 1C                    2402 	.db #0x1c	; 28
      0002EF 00                    2403 	.db #0x00	; 0
      0002F0 08                    2404 	.db #0x08	; 8
      0002F1 14                    2405 	.db #0x14	; 20
      0002F2 22                    2406 	.db #0x22	; 34
      0002F3 00                    2407 	.db #0x00	; 0
      0002F4 00                    2408 	.db #0x00	; 0
      0002F5 00                    2409 	.db #0x00	; 0
      0002F6 00                    2410 	.db #0x00	; 0
      0002F7 00                    2411 	.db #0x00	; 0
      0002F8 00                    2412 	.db #0x00	; 0
      0002F9 00                    2413 	.db #0x00	; 0
      0002FA 00                    2414 	.db #0x00	; 0
      0002FB 00                    2415 	.db #0x00	; 0
      0002FC 00                    2416 	.db #0x00	; 0
      0002FD 00                    2417 	.db #0x00	; 0
      0002FE 00                    2418 	.db #0x00	; 0
      0002FF 3F                    2419 	.db #0x3f	; 63
      000300 0C                    2420 	.db #0x0c	; 12
      000301 0C                    2421 	.db #0x0c	; 12
      000302 08                    2422 	.db #0x08	; 8
      000303 00                    2423 	.db #0x00	; 0
      000304 00                    2424 	.db #0x00	; 0
      000305 00                    2425 	.db #0x00	; 0
      000306 00                    2426 	.db #0x00	; 0
      000307 00                    2427 	.db #0x00	; 0
      000308 00                    2428 	.db #0x00	; 0
      000309 00                    2429 	.db #0x00	; 0
      00030A 1C                    2430 	.db #0x1c	; 28
      00030B 20                    2431 	.db #0x20	; 32
      00030C 3C                    2432 	.db #0x3c	; 60
      00030D 22                    2433 	.db #0x22	; 34
      00030E 3C                    2434 	.db #0x3c	; 60
      00030F 00                    2435 	.db #0x00	; 0
      000310 02                    2436 	.db #0x02	; 2
      000311 02                    2437 	.db #0x02	; 2
      000312 1E                    2438 	.db #0x1e	; 30
      000313 22                    2439 	.db #0x22	; 34
      000314 22                    2440 	.db #0x22	; 34
      000315 22                    2441 	.db #0x22	; 34
      000316 1E                    2442 	.db #0x1e	; 30
      000317 00                    2443 	.db #0x00	; 0
      000318 00                    2444 	.db #0x00	; 0
      000319 00                    2445 	.db #0x00	; 0
      00031A 1C                    2446 	.db #0x1c	; 28
      00031B 22                    2447 	.db #0x22	; 34
      00031C 02                    2448 	.db #0x02	; 2
      00031D 22                    2449 	.db #0x22	; 34
      00031E 1C                    2450 	.db #0x1c	; 28
      00031F 00                    2451 	.db #0x00	; 0
      000320 20                    2452 	.db #0x20	; 32
      000321 20                    2453 	.db #0x20	; 32
      000322 3C                    2454 	.db #0x3c	; 60
      000323 22                    2455 	.db #0x22	; 34
      000324 22                    2456 	.db #0x22	; 34
      000325 22                    2457 	.db #0x22	; 34
      000326 3C                    2458 	.db #0x3c	; 60
      000327 00                    2459 	.db #0x00	; 0
      000328 00                    2460 	.db #0x00	; 0
      000329 00                    2461 	.db #0x00	; 0
      00032A 1C                    2462 	.db #0x1c	; 28
      00032B 22                    2463 	.db #0x22	; 34
      00032C 1E                    2464 	.db #0x1e	; 30
      00032D 02                    2465 	.db #0x02	; 2
      00032E 1C                    2466 	.db #0x1c	; 28
      00032F 00                    2467 	.db #0x00	; 0
      000330 18                    2468 	.db #0x18	; 24
      000331 04                    2469 	.db #0x04	; 4
      000332 04                    2470 	.db #0x04	; 4
      000333 1E                    2471 	.db #0x1e	; 30
      000334 04                    2472 	.db #0x04	; 4
      000335 04                    2473 	.db #0x04	; 4
      000336 04                    2474 	.db #0x04	; 4
      000337 00                    2475 	.db #0x00	; 0
      000338 00                    2476 	.db #0x00	; 0
      000339 00                    2477 	.db #0x00	; 0
      00033A 3C                    2478 	.db #0x3c	; 60
      00033B 22                    2479 	.db #0x22	; 34
      00033C 22                    2480 	.db #0x22	; 34
      00033D 3C                    2481 	.db #0x3c	; 60
      00033E 20                    2482 	.db #0x20	; 32
      00033F 1C                    2483 	.db #0x1c	; 28
      000340 02                    2484 	.db #0x02	; 2
      000341 02                    2485 	.db #0x02	; 2
      000342 0E                    2486 	.db #0x0e	; 14
      000343 12                    2487 	.db #0x12	; 18
      000344 12                    2488 	.db #0x12	; 18
      000345 12                    2489 	.db #0x12	; 18
      000346 12                    2490 	.db #0x12	; 18
      000347 00                    2491 	.db #0x00	; 0
      000348 08                    2492 	.db #0x08	; 8
      000349 00                    2493 	.db #0x00	; 0
      00034A 08                    2494 	.db #0x08	; 8
      00034B 08                    2495 	.db #0x08	; 8
      00034C 08                    2496 	.db #0x08	; 8
      00034D 08                    2497 	.db #0x08	; 8
      00034E 18                    2498 	.db #0x18	; 24
      00034F 00                    2499 	.db #0x00	; 0
      000350 10                    2500 	.db #0x10	; 16
      000351 00                    2501 	.db #0x00	; 0
      000352 18                    2502 	.db #0x18	; 24
      000353 10                    2503 	.db #0x10	; 16
      000354 10                    2504 	.db #0x10	; 16
      000355 10                    2505 	.db #0x10	; 16
      000356 12                    2506 	.db #0x12	; 18
      000357 0C                    2507 	.db #0x0c	; 12
      000358 02                    2508 	.db #0x02	; 2
      000359 02                    2509 	.db #0x02	; 2
      00035A 12                    2510 	.db #0x12	; 18
      00035B 0A                    2511 	.db #0x0a	; 10
      00035C 06                    2512 	.db #0x06	; 6
      00035D 0A                    2513 	.db #0x0a	; 10
      00035E 12                    2514 	.db #0x12	; 18
      00035F 00                    2515 	.db #0x00	; 0
      000360 08                    2516 	.db #0x08	; 8
      000361 08                    2517 	.db #0x08	; 8
      000362 08                    2518 	.db #0x08	; 8
      000363 08                    2519 	.db #0x08	; 8
      000364 08                    2520 	.db #0x08	; 8
      000365 08                    2521 	.db #0x08	; 8
      000366 18                    2522 	.db #0x18	; 24
      000367 00                    2523 	.db #0x00	; 0
      000368 00                    2524 	.db #0x00	; 0
      000369 00                    2525 	.db #0x00	; 0
      00036A 16                    2526 	.db #0x16	; 22
      00036B 2A                    2527 	.db #0x2a	; 42
      00036C 2A                    2528 	.db #0x2a	; 42
      00036D 22                    2529 	.db #0x22	; 34
      00036E 22                    2530 	.db #0x22	; 34
      00036F 00                    2531 	.db #0x00	; 0
      000370 00                    2532 	.db #0x00	; 0
      000371 00                    2533 	.db #0x00	; 0
      000372 0E                    2534 	.db #0x0e	; 14
      000373 12                    2535 	.db #0x12	; 18
      000374 12                    2536 	.db #0x12	; 18
      000375 12                    2537 	.db #0x12	; 18
      000376 12                    2538 	.db #0x12	; 18
      000377 00                    2539 	.db #0x00	; 0
      000378 00                    2540 	.db #0x00	; 0
      000379 00                    2541 	.db #0x00	; 0
      00037A 1C                    2542 	.db #0x1c	; 28
      00037B 22                    2543 	.db #0x22	; 34
      00037C 22                    2544 	.db #0x22	; 34
      00037D 22                    2545 	.db #0x22	; 34
      00037E 1C                    2546 	.db #0x1c	; 28
      00037F 00                    2547 	.db #0x00	; 0
      000380 00                    2548 	.db #0x00	; 0
      000381 00                    2549 	.db #0x00	; 0
      000382 1E                    2550 	.db #0x1e	; 30
      000383 22                    2551 	.db #0x22	; 34
      000384 22                    2552 	.db #0x22	; 34
      000385 22                    2553 	.db #0x22	; 34
      000386 1E                    2554 	.db #0x1e	; 30
      000387 02                    2555 	.db #0x02	; 2
      000388 00                    2556 	.db #0x00	; 0
      000389 00                    2557 	.db #0x00	; 0
      00038A 3C                    2558 	.db #0x3c	; 60
      00038B 22                    2559 	.db #0x22	; 34
      00038C 22                    2560 	.db #0x22	; 34
      00038D 22                    2561 	.db #0x22	; 34
      00038E 3C                    2562 	.db #0x3c	; 60
      00038F 20                    2563 	.db #0x20	; 32
      000390 00                    2564 	.db #0x00	; 0
      000391 00                    2565 	.db #0x00	; 0
      000392 1A                    2566 	.db #0x1a	; 26
      000393 24                    2567 	.db #0x24	; 36
      000394 04                    2568 	.db #0x04	; 4
      000395 04                    2569 	.db #0x04	; 4
      000396 0E                    2570 	.db #0x0e	; 14
      000397 00                    2571 	.db #0x00	; 0
      000398 00                    2572 	.db #0x00	; 0
      000399 00                    2573 	.db #0x00	; 0
      00039A 1C                    2574 	.db #0x1c	; 28
      00039B 02                    2575 	.db #0x02	; 2
      00039C 1C                    2576 	.db #0x1c	; 28
      00039D 20                    2577 	.db #0x20	; 32
      00039E 1C                    2578 	.db #0x1c	; 28
      00039F 00                    2579 	.db #0x00	; 0
      0003A0 00                    2580 	.db #0x00	; 0
      0003A1 04                    2581 	.db #0x04	; 4
      0003A2 1E                    2582 	.db #0x1e	; 30
      0003A3 04                    2583 	.db #0x04	; 4
      0003A4 04                    2584 	.db #0x04	; 4
      0003A5 14                    2585 	.db #0x14	; 20
      0003A6 08                    2586 	.db #0x08	; 8
      0003A7 00                    2587 	.db #0x00	; 0
      0003A8 00                    2588 	.db #0x00	; 0
      0003A9 00                    2589 	.db #0x00	; 0
      0003AA 12                    2590 	.db #0x12	; 18
      0003AB 12                    2591 	.db #0x12	; 18
      0003AC 12                    2592 	.db #0x12	; 18
      0003AD 1A                    2593 	.db #0x1a	; 26
      0003AE 14                    2594 	.db #0x14	; 20
      0003AF 00                    2595 	.db #0x00	; 0
      0003B0 00                    2596 	.db #0x00	; 0
      0003B1 00                    2597 	.db #0x00	; 0
      0003B2 22                    2598 	.db #0x22	; 34
      0003B3 22                    2599 	.db #0x22	; 34
      0003B4 22                    2600 	.db #0x22	; 34
      0003B5 14                    2601 	.db #0x14	; 20
      0003B6 08                    2602 	.db #0x08	; 8
      0003B7 00                    2603 	.db #0x00	; 0
      0003B8 00                    2604 	.db #0x00	; 0
      0003B9 00                    2605 	.db #0x00	; 0
      0003BA 22                    2606 	.db #0x22	; 34
      0003BB 22                    2607 	.db #0x22	; 34
      0003BC 2A                    2608 	.db #0x2a	; 42
      0003BD 3E                    2609 	.db #0x3e	; 62
      0003BE 14                    2610 	.db #0x14	; 20
      0003BF 00                    2611 	.db #0x00	; 0
      0003C0 00                    2612 	.db #0x00	; 0
      0003C1 00                    2613 	.db #0x00	; 0
      0003C2 12                    2614 	.db #0x12	; 18
      0003C3 12                    2615 	.db #0x12	; 18
      0003C4 0C                    2616 	.db #0x0c	; 12
      0003C5 12                    2617 	.db #0x12	; 18
      0003C6 12                    2618 	.db #0x12	; 18
      0003C7 00                    2619 	.db #0x00	; 0
      0003C8 00                    2620 	.db #0x00	; 0
      0003C9 00                    2621 	.db #0x00	; 0
      0003CA 12                    2622 	.db #0x12	; 18
      0003CB 12                    2623 	.db #0x12	; 18
      0003CC 12                    2624 	.db #0x12	; 18
      0003CD 1C                    2625 	.db #0x1c	; 28
      0003CE 08                    2626 	.db #0x08	; 8
      0003CF 06                    2627 	.db #0x06	; 6
      0003D0 00                    2628 	.db #0x00	; 0
      0003D1 00                    2629 	.db #0x00	; 0
      0003D2 1E                    2630 	.db #0x1e	; 30
      0003D3 10                    2631 	.db #0x10	; 16
      0003D4 0C                    2632 	.db #0x0c	; 12
      0003D5 02                    2633 	.db #0x02	; 2
      0003D6 1E                    2634 	.db #0x1e	; 30
      0003D7 00                    2635 	.db #0x00	; 0
      0003D8 18                    2636 	.db #0x18	; 24
      0003D9 04                    2637 	.db #0x04	; 4
      0003DA 04                    2638 	.db #0x04	; 4
      0003DB 06                    2639 	.db #0x06	; 6
      0003DC 04                    2640 	.db #0x04	; 4
      0003DD 04                    2641 	.db #0x04	; 4
      0003DE 18                    2642 	.db #0x18	; 24
      0003DF 00                    2643 	.db #0x00	; 0
      0003E0 08                    2644 	.db #0x08	; 8
      0003E1 08                    2645 	.db #0x08	; 8
      0003E2 08                    2646 	.db #0x08	; 8
      0003E3 00                    2647 	.db #0x00	; 0
      0003E4 08                    2648 	.db #0x08	; 8
      0003E5 08                    2649 	.db #0x08	; 8
      0003E6 08                    2650 	.db #0x08	; 8
      0003E7 00                    2651 	.db #0x00	; 0
      0003E8 0C                    2652 	.db #0x0c	; 12
      0003E9 10                    2653 	.db #0x10	; 16
      0003EA 10                    2654 	.db #0x10	; 16
      0003EB 30                    2655 	.db #0x30	; 48	'0'
      0003EC 10                    2656 	.db #0x10	; 16
      0003ED 10                    2657 	.db #0x10	; 16
      0003EE 0C                    2658 	.db #0x0c	; 12
      0003EF 00                    2659 	.db #0x00	; 0
      0003F0 14                    2660 	.db #0x14	; 20
      0003F1 0A                    2661 	.db #0x0a	; 10
      0003F2 00                    2662 	.db #0x00	; 0
      0003F3 00                    2663 	.db #0x00	; 0
      0003F4 00                    2664 	.db #0x00	; 0
      0003F5 00                    2665 	.db #0x00	; 0
      0003F6 00                    2666 	.db #0x00	; 0
      0003F7 00                    2667 	.db #0x00	; 0
      0003F8 08                    2668 	.db #0x08	; 8
      0003F9 1C                    2669 	.db #0x1c	; 28
      0003FA 36                    2670 	.db #0x36	; 54	'6'
      0003FB 22                    2671 	.db #0x22	; 34
      0003FC 22                    2672 	.db #0x22	; 34
      0003FD 3E                    2673 	.db #0x3e	; 62
      0003FE 00                    2674 	.db #0x00	; 0
      0003FF 00                    2675 	.db #0x00	; 0
      000400 1C                    2676 	.db #0x1c	; 28
      000401 22                    2677 	.db #0x22	; 34
      000402 02                    2678 	.db #0x02	; 2
      000403 02                    2679 	.db #0x02	; 2
      000404 22                    2680 	.db #0x22	; 34
      000405 1C                    2681 	.db #0x1c	; 28
      000406 08                    2682 	.db #0x08	; 8
      000407 0C                    2683 	.db #0x0c	; 12
      000408 12                    2684 	.db #0x12	; 18
      000409 00                    2685 	.db #0x00	; 0
      00040A 12                    2686 	.db #0x12	; 18
      00040B 12                    2687 	.db #0x12	; 18
      00040C 12                    2688 	.db #0x12	; 18
      00040D 1A                    2689 	.db #0x1a	; 26
      00040E 14                    2690 	.db #0x14	; 20
      00040F 00                    2691 	.db #0x00	; 0
      000410 30                    2692 	.db #0x30	; 48	'0'
      000411 00                    2693 	.db #0x00	; 0
      000412 1C                    2694 	.db #0x1c	; 28
      000413 22                    2695 	.db #0x22	; 34
      000414 1E                    2696 	.db #0x1e	; 30
      000415 02                    2697 	.db #0x02	; 2
      000416 1C                    2698 	.db #0x1c	; 28
      000417 00                    2699 	.db #0x00	; 0
      000418 1C                    2700 	.db #0x1c	; 28
      000419 00                    2701 	.db #0x00	; 0
      00041A 1C                    2702 	.db #0x1c	; 28
      00041B 20                    2703 	.db #0x20	; 32
      00041C 3C                    2704 	.db #0x3c	; 60
      00041D 22                    2705 	.db #0x22	; 34
      00041E 3C                    2706 	.db #0x3c	; 60
      00041F 00                    2707 	.db #0x00	; 0
      000420 14                    2708 	.db #0x14	; 20
      000421 00                    2709 	.db #0x00	; 0
      000422 1C                    2710 	.db #0x1c	; 28
      000423 20                    2711 	.db #0x20	; 32
      000424 3C                    2712 	.db #0x3c	; 60
      000425 22                    2713 	.db #0x22	; 34
      000426 3C                    2714 	.db #0x3c	; 60
      000427 00                    2715 	.db #0x00	; 0
      000428 0C                    2716 	.db #0x0c	; 12
      000429 00                    2717 	.db #0x00	; 0
      00042A 1C                    2718 	.db #0x1c	; 28
      00042B 20                    2719 	.db #0x20	; 32
      00042C 3C                    2720 	.db #0x3c	; 60
      00042D 22                    2721 	.db #0x22	; 34
      00042E 3C                    2722 	.db #0x3c	; 60
      00042F 00                    2723 	.db #0x00	; 0
      000430 1C                    2724 	.db #0x1c	; 28
      000431 14                    2725 	.db #0x14	; 20
      000432 1C                    2726 	.db #0x1c	; 28
      000433 20                    2727 	.db #0x20	; 32
      000434 3C                    2728 	.db #0x3c	; 60
      000435 22                    2729 	.db #0x22	; 34
      000436 3C                    2730 	.db #0x3c	; 60
      000437 00                    2731 	.db #0x00	; 0
      000438 00                    2732 	.db #0x00	; 0
      000439 1C                    2733 	.db #0x1c	; 28
      00043A 22                    2734 	.db #0x22	; 34
      00043B 02                    2735 	.db #0x02	; 2
      00043C 22                    2736 	.db #0x22	; 34
      00043D 1C                    2737 	.db #0x1c	; 28
      00043E 08                    2738 	.db #0x08	; 8
      00043F 0C                    2739 	.db #0x0c	; 12
      000440 1C                    2740 	.db #0x1c	; 28
      000441 00                    2741 	.db #0x00	; 0
      000442 1C                    2742 	.db #0x1c	; 28
      000443 22                    2743 	.db #0x22	; 34
      000444 1E                    2744 	.db #0x1e	; 30
      000445 02                    2745 	.db #0x02	; 2
      000446 1C                    2746 	.db #0x1c	; 28
      000447 00                    2747 	.db #0x00	; 0
      000448 14                    2748 	.db #0x14	; 20
      000449 00                    2749 	.db #0x00	; 0
      00044A 1C                    2750 	.db #0x1c	; 28
      00044B 22                    2751 	.db #0x22	; 34
      00044C 1E                    2752 	.db #0x1e	; 30
      00044D 02                    2753 	.db #0x02	; 2
      00044E 1C                    2754 	.db #0x1c	; 28
      00044F 00                    2755 	.db #0x00	; 0
      000450 0C                    2756 	.db #0x0c	; 12
      000451 00                    2757 	.db #0x00	; 0
      000452 1C                    2758 	.db #0x1c	; 28
      000453 22                    2759 	.db #0x22	; 34
      000454 1E                    2760 	.db #0x1e	; 30
      000455 02                    2761 	.db #0x02	; 2
      000456 1C                    2762 	.db #0x1c	; 28
      000457 00                    2763 	.db #0x00	; 0
      000458 14                    2764 	.db #0x14	; 20
      000459 00                    2765 	.db #0x00	; 0
      00045A 08                    2766 	.db #0x08	; 8
      00045B 08                    2767 	.db #0x08	; 8
      00045C 08                    2768 	.db #0x08	; 8
      00045D 08                    2769 	.db #0x08	; 8
      00045E 18                    2770 	.db #0x18	; 24
      00045F 00                    2771 	.db #0x00	; 0
      000460 08                    2772 	.db #0x08	; 8
      000461 14                    2773 	.db #0x14	; 20
      000462 00                    2774 	.db #0x00	; 0
      000463 08                    2775 	.db #0x08	; 8
      000464 08                    2776 	.db #0x08	; 8
      000465 08                    2777 	.db #0x08	; 8
      000466 18                    2778 	.db #0x18	; 24
      000467 00                    2779 	.db #0x00	; 0
      000468 04                    2780 	.db #0x04	; 4
      000469 00                    2781 	.db #0x00	; 0
      00046A 08                    2782 	.db #0x08	; 8
      00046B 08                    2783 	.db #0x08	; 8
      00046C 08                    2784 	.db #0x08	; 8
      00046D 08                    2785 	.db #0x08	; 8
      00046E 18                    2786 	.db #0x18	; 24
      00046F 00                    2787 	.db #0x00	; 0
      000470 14                    2788 	.db #0x14	; 20
      000471 00                    2789 	.db #0x00	; 0
      000472 08                    2790 	.db #0x08	; 8
      000473 14                    2791 	.db #0x14	; 20
      000474 22                    2792 	.db #0x22	; 34
      000475 3E                    2793 	.db #0x3e	; 62
      000476 22                    2794 	.db #0x22	; 34
      000477 00                    2795 	.db #0x00	; 0
      000478 1C                    2796 	.db #0x1c	; 28
      000479 14                    2797 	.db #0x14	; 20
      00047A 1C                    2798 	.db #0x1c	; 28
      00047B 36                    2799 	.db #0x36	; 54	'6'
      00047C 22                    2800 	.db #0x22	; 34
      00047D 3E                    2801 	.db #0x3e	; 62
      00047E 22                    2802 	.db #0x22	; 34
      00047F 00                    2803 	.db #0x00	; 0
      000480 30                    2804 	.db #0x30	; 48	'0'
      000481 00                    2805 	.db #0x00	; 0
      000482 3E                    2806 	.db #0x3e	; 62
      000483 02                    2807 	.db #0x02	; 2
      000484 1E                    2808 	.db #0x1e	; 30
      000485 02                    2809 	.db #0x02	; 2
      000486 3E                    2810 	.db #0x3e	; 62
      000487 00                    2811 	.db #0x00	; 0
      000488 00                    2812 	.db #0x00	; 0
      000489 00                    2813 	.db #0x00	; 0
      00048A 1E                    2814 	.db #0x1e	; 30
      00048B 28                    2815 	.db #0x28	; 40
      00048C 3E                    2816 	.db #0x3e	; 62
      00048D 0A                    2817 	.db #0x0a	; 10
      00048E 3C                    2818 	.db #0x3c	; 60
      00048F 00                    2819 	.db #0x00	; 0
      000490 3C                    2820 	.db #0x3c	; 60
      000491 0A                    2821 	.db #0x0a	; 10
      000492 0A                    2822 	.db #0x0a	; 10
      000493 3E                    2823 	.db #0x3e	; 62
      000494 0A                    2824 	.db #0x0a	; 10
      000495 0A                    2825 	.db #0x0a	; 10
      000496 3A                    2826 	.db #0x3a	; 58
      000497 00                    2827 	.db #0x00	; 0
      000498 1C                    2828 	.db #0x1c	; 28
      000499 00                    2829 	.db #0x00	; 0
      00049A 0C                    2830 	.db #0x0c	; 12
      00049B 12                    2831 	.db #0x12	; 18
      00049C 12                    2832 	.db #0x12	; 18
      00049D 12                    2833 	.db #0x12	; 18
      00049E 0C                    2834 	.db #0x0c	; 12
      00049F 00                    2835 	.db #0x00	; 0
      0004A0 14                    2836 	.db #0x14	; 20
      0004A1 00                    2837 	.db #0x00	; 0
      0004A2 0C                    2838 	.db #0x0c	; 12
      0004A3 12                    2839 	.db #0x12	; 18
      0004A4 12                    2840 	.db #0x12	; 18
      0004A5 12                    2841 	.db #0x12	; 18
      0004A6 0C                    2842 	.db #0x0c	; 12
      0004A7 00                    2843 	.db #0x00	; 0
      0004A8 06                    2844 	.db #0x06	; 6
      0004A9 00                    2845 	.db #0x00	; 0
      0004AA 0C                    2846 	.db #0x0c	; 12
      0004AB 12                    2847 	.db #0x12	; 18
      0004AC 12                    2848 	.db #0x12	; 18
      0004AD 12                    2849 	.db #0x12	; 18
      0004AE 0C                    2850 	.db #0x0c	; 12
      0004AF 00                    2851 	.db #0x00	; 0
      0004B0 1C                    2852 	.db #0x1c	; 28
      0004B1 00                    2853 	.db #0x00	; 0
      0004B2 12                    2854 	.db #0x12	; 18
      0004B3 12                    2855 	.db #0x12	; 18
      0004B4 12                    2856 	.db #0x12	; 18
      0004B5 1A                    2857 	.db #0x1a	; 26
      0004B6 14                    2858 	.db #0x14	; 20
      0004B7 00                    2859 	.db #0x00	; 0
      0004B8 06                    2860 	.db #0x06	; 6
      0004B9 00                    2861 	.db #0x00	; 0
      0004BA 12                    2862 	.db #0x12	; 18
      0004BB 12                    2863 	.db #0x12	; 18
      0004BC 12                    2864 	.db #0x12	; 18
      0004BD 1A                    2865 	.db #0x1a	; 26
      0004BE 14                    2866 	.db #0x14	; 20
      0004BF 00                    2867 	.db #0x00	; 0
      0004C0 14                    2868 	.db #0x14	; 20
      0004C1 00                    2869 	.db #0x00	; 0
      0004C2 12                    2870 	.db #0x12	; 18
      0004C3 12                    2871 	.db #0x12	; 18
      0004C4 12                    2872 	.db #0x12	; 18
      0004C5 1C                    2873 	.db #0x1c	; 28
      0004C6 08                    2874 	.db #0x08	; 8
      0004C7 06                    2875 	.db #0x06	; 6
      0004C8 12                    2876 	.db #0x12	; 18
      0004C9 0C                    2877 	.db #0x0c	; 12
      0004CA 12                    2878 	.db #0x12	; 18
      0004CB 12                    2879 	.db #0x12	; 18
      0004CC 12                    2880 	.db #0x12	; 18
      0004CD 12                    2881 	.db #0x12	; 18
      0004CE 0C                    2882 	.db #0x0c	; 12
      0004CF 00                    2883 	.db #0x00	; 0
      0004D0 14                    2884 	.db #0x14	; 20
      0004D1 00                    2885 	.db #0x00	; 0
      0004D2 12                    2886 	.db #0x12	; 18
      0004D3 12                    2887 	.db #0x12	; 18
      0004D4 12                    2888 	.db #0x12	; 18
      0004D5 12                    2889 	.db #0x12	; 18
      0004D6 0C                    2890 	.db #0x0c	; 12
      0004D7 00                    2891 	.db #0x00	; 0
      0004D8 00                    2892 	.db #0x00	; 0
      0004D9 08                    2893 	.db #0x08	; 8
      0004DA 1C                    2894 	.db #0x1c	; 28
      0004DB 02                    2895 	.db #0x02	; 2
      0004DC 02                    2896 	.db #0x02	; 2
      0004DD 1C                    2897 	.db #0x1c	; 28
      0004DE 08                    2898 	.db #0x08	; 8
      0004DF 00                    2899 	.db #0x00	; 0
      0004E0 18                    2900 	.db #0x18	; 24
      0004E1 24                    2901 	.db #0x24	; 36
      0004E2 04                    2902 	.db #0x04	; 4
      0004E3 1E                    2903 	.db #0x1e	; 30
      0004E4 04                    2904 	.db #0x04	; 4
      0004E5 24                    2905 	.db #0x24	; 36
      0004E6 3A                    2906 	.db #0x3a	; 58
      0004E7 00                    2907 	.db #0x00	; 0
      0004E8 22                    2908 	.db #0x22	; 34
      0004E9 14                    2909 	.db #0x14	; 20
      0004EA 08                    2910 	.db #0x08	; 8
      0004EB 3E                    2911 	.db #0x3e	; 62
      0004EC 08                    2912 	.db #0x08	; 8
      0004ED 3E                    2913 	.db #0x3e	; 62
      0004EE 08                    2914 	.db #0x08	; 8
      0004EF 00                    2915 	.db #0x00	; 0
      0004F0 06                    2916 	.db #0x06	; 6
      0004F1 0A                    2917 	.db #0x0a	; 10
      0004F2 0A                    2918 	.db #0x0a	; 10
      0004F3 16                    2919 	.db #0x16	; 22
      0004F4 3A                    2920 	.db #0x3a	; 58
      0004F5 12                    2921 	.db #0x12	; 18
      0004F6 12                    2922 	.db #0x12	; 18
      0004F7 00                    2923 	.db #0x00	; 0
      0004F8 10                    2924 	.db #0x10	; 16
      0004F9 28                    2925 	.db #0x28	; 40
      0004FA 08                    2926 	.db #0x08	; 8
      0004FB 1C                    2927 	.db #0x1c	; 28
      0004FC 08                    2928 	.db #0x08	; 8
      0004FD 08                    2929 	.db #0x08	; 8
      0004FE 0A                    2930 	.db #0x0a	; 10
      0004FF 04                    2931 	.db #0x04	; 4
      000500 18                    2932 	.db #0x18	; 24
      000501 00                    2933 	.db #0x00	; 0
      000502 1C                    2934 	.db #0x1c	; 28
      000503 20                    2935 	.db #0x20	; 32
      000504 3C                    2936 	.db #0x3c	; 60
      000505 22                    2937 	.db #0x22	; 34
      000506 3C                    2938 	.db #0x3c	; 60
      000507 00                    2939 	.db #0x00	; 0
      000508 18                    2940 	.db #0x18	; 24
      000509 00                    2941 	.db #0x00	; 0
      00050A 08                    2942 	.db #0x08	; 8
      00050B 08                    2943 	.db #0x08	; 8
      00050C 08                    2944 	.db #0x08	; 8
      00050D 08                    2945 	.db #0x08	; 8
      00050E 18                    2946 	.db #0x18	; 24
      00050F 00                    2947 	.db #0x00	; 0
      000510 18                    2948 	.db #0x18	; 24
      000511 00                    2949 	.db #0x00	; 0
      000512 0C                    2950 	.db #0x0c	; 12
      000513 12                    2951 	.db #0x12	; 18
      000514 12                    2952 	.db #0x12	; 18
      000515 12                    2953 	.db #0x12	; 18
      000516 0C                    2954 	.db #0x0c	; 12
      000517 00                    2955 	.db #0x00	; 0
      000518 18                    2956 	.db #0x18	; 24
      000519 00                    2957 	.db #0x00	; 0
      00051A 12                    2958 	.db #0x12	; 18
      00051B 12                    2959 	.db #0x12	; 18
      00051C 12                    2960 	.db #0x12	; 18
      00051D 1A                    2961 	.db #0x1a	; 26
      00051E 14                    2962 	.db #0x14	; 20
      00051F 00                    2963 	.db #0x00	; 0
      000520 14                    2964 	.db #0x14	; 20
      000521 0A                    2965 	.db #0x0a	; 10
      000522 00                    2966 	.db #0x00	; 0
      000523 0E                    2967 	.db #0x0e	; 14
      000524 12                    2968 	.db #0x12	; 18
      000525 12                    2969 	.db #0x12	; 18
      000526 12                    2970 	.db #0x12	; 18
      000527 00                    2971 	.db #0x00	; 0
      000528 14                    2972 	.db #0x14	; 20
      000529 0A                    2973 	.db #0x0a	; 10
      00052A 00                    2974 	.db #0x00	; 0
      00052B 12                    2975 	.db #0x12	; 18
      00052C 16                    2976 	.db #0x16	; 22
      00052D 1A                    2977 	.db #0x1a	; 26
      00052E 12                    2978 	.db #0x12	; 18
      00052F 00                    2979 	.db #0x00	; 0
      000530 1C                    2980 	.db #0x1c	; 28
      000531 20                    2981 	.db #0x20	; 32
      000532 3C                    2982 	.db #0x3c	; 60
      000533 22                    2983 	.db #0x22	; 34
      000534 3C                    2984 	.db #0x3c	; 60
      000535 00                    2985 	.db #0x00	; 0
      000536 3C                    2986 	.db #0x3c	; 60
      000537 00                    2987 	.db #0x00	; 0
      000538 0C                    2988 	.db #0x0c	; 12
      000539 12                    2989 	.db #0x12	; 18
      00053A 12                    2990 	.db #0x12	; 18
      00053B 12                    2991 	.db #0x12	; 18
      00053C 0C                    2992 	.db #0x0c	; 12
      00053D 00                    2993 	.db #0x00	; 0
      00053E 1E                    2994 	.db #0x1e	; 30
      00053F 00                    2995 	.db #0x00	; 0
      000540 08                    2996 	.db #0x08	; 8
      000541 00                    2997 	.db #0x00	; 0
      000542 08                    2998 	.db #0x08	; 8
      000543 0C                    2999 	.db #0x0c	; 12
      000544 02                    3000 	.db #0x02	; 2
      000545 22                    3001 	.db #0x22	; 34
      000546 1C                    3002 	.db #0x1c	; 28
      000547 00                    3003 	.db #0x00	; 0
      000548 00                    3004 	.db #0x00	; 0
      000549 00                    3005 	.db #0x00	; 0
      00054A 3E                    3006 	.db #0x3e	; 62
      00054B 02                    3007 	.db #0x02	; 2
      00054C 02                    3008 	.db #0x02	; 2
      00054D 02                    3009 	.db #0x02	; 2
      00054E 00                    3010 	.db #0x00	; 0
      00054F 00                    3011 	.db #0x00	; 0
      000550 00                    3012 	.db #0x00	; 0
      000551 00                    3013 	.db #0x00	; 0
      000552 3F                    3014 	.db #0x3f	; 63
      000553 20                    3015 	.db #0x20	; 32
      000554 20                    3016 	.db #0x20	; 32
      000555 00                    3017 	.db #0x00	; 0
      000556 00                    3018 	.db #0x00	; 0
      000557 00                    3019 	.db #0x00	; 0
      000558 02                    3020 	.db #0x02	; 2
      000559 12                    3021 	.db #0x12	; 18
      00055A 0A                    3022 	.db #0x0a	; 10
      00055B 1C                    3023 	.db #0x1c	; 28
      00055C 22                    3024 	.db #0x22	; 34
      00055D 10                    3025 	.db #0x10	; 16
      00055E 38                    3026 	.db #0x38	; 56	'8'
      00055F 00                    3027 	.db #0x00	; 0
      000560 02                    3028 	.db #0x02	; 2
      000561 12                    3029 	.db #0x12	; 18
      000562 0A                    3030 	.db #0x0a	; 10
      000563 34                    3031 	.db #0x34	; 52	'4'
      000564 2A                    3032 	.db #0x2a	; 42
      000565 38                    3033 	.db #0x38	; 56	'8'
      000566 20                    3034 	.db #0x20	; 32
      000567 00                    3035 	.db #0x00	; 0
      000568 08                    3036 	.db #0x08	; 8
      000569 00                    3037 	.db #0x00	; 0
      00056A 08                    3038 	.db #0x08	; 8
      00056B 08                    3039 	.db #0x08	; 8
      00056C 1C                    3040 	.db #0x1c	; 28
      00056D 1C                    3041 	.db #0x1c	; 28
      00056E 08                    3042 	.db #0x08	; 8
      00056F 00                    3043 	.db #0x00	; 0
      000570 00                    3044 	.db #0x00	; 0
      000571 00                    3045 	.db #0x00	; 0
      000572 24                    3046 	.db #0x24	; 36
      000573 12                    3047 	.db #0x12	; 18
      000574 24                    3048 	.db #0x24	; 36
      000575 00                    3049 	.db #0x00	; 0
      000576 00                    3050 	.db #0x00	; 0
      000577 00                    3051 	.db #0x00	; 0
      000578 00                    3052 	.db #0x00	; 0
      000579 00                    3053 	.db #0x00	; 0
      00057A 12                    3054 	.db #0x12	; 18
      00057B 24                    3055 	.db #0x24	; 36
      00057C 12                    3056 	.db #0x12	; 18
      00057D 00                    3057 	.db #0x00	; 0
      00057E 00                    3058 	.db #0x00	; 0
      00057F 00                    3059 	.db #0x00	; 0
      000580 2A                    3060 	.db #0x2a	; 42
      000581 00                    3061 	.db #0x00	; 0
      000582 15                    3062 	.db #0x15	; 21
      000583 00                    3063 	.db #0x00	; 0
      000584 2A                    3064 	.db #0x2a	; 42
      000585 00                    3065 	.db #0x00	; 0
      000586 15                    3066 	.db #0x15	; 21
      000587 00                    3067 	.db #0x00	; 0
      000588 2A                    3068 	.db #0x2a	; 42
      000589 15                    3069 	.db #0x15	; 21
      00058A 2A                    3070 	.db #0x2a	; 42
      00058B 15                    3071 	.db #0x15	; 21
      00058C 2A                    3072 	.db #0x2a	; 42
      00058D 15                    3073 	.db #0x15	; 21
      00058E 2A                    3074 	.db #0x2a	; 42
      00058F 15                    3075 	.db #0x15	; 21
      000590 15                    3076 	.db #0x15	; 21
      000591 3F                    3077 	.db #0x3f	; 63
      000592 2A                    3078 	.db #0x2a	; 42
      000593 3F                    3079 	.db #0x3f	; 63
      000594 15                    3080 	.db #0x15	; 21
      000595 3F                    3081 	.db #0x3f	; 63
      000596 2A                    3082 	.db #0x2a	; 42
      000597 3F                    3083 	.db #0x3f	; 63
      000598 08                    3084 	.db #0x08	; 8
      000599 08                    3085 	.db #0x08	; 8
      00059A 08                    3086 	.db #0x08	; 8
      00059B 08                    3087 	.db #0x08	; 8
      00059C 08                    3088 	.db #0x08	; 8
      00059D 08                    3089 	.db #0x08	; 8
      00059E 08                    3090 	.db #0x08	; 8
      00059F 08                    3091 	.db #0x08	; 8
      0005A0 08                    3092 	.db #0x08	; 8
      0005A1 08                    3093 	.db #0x08	; 8
      0005A2 08                    3094 	.db #0x08	; 8
      0005A3 0F                    3095 	.db #0x0f	; 15
      0005A4 08                    3096 	.db #0x08	; 8
      0005A5 08                    3097 	.db #0x08	; 8
      0005A6 08                    3098 	.db #0x08	; 8
      0005A7 08                    3099 	.db #0x08	; 8
      0005A8 08                    3100 	.db #0x08	; 8
      0005A9 0F                    3101 	.db #0x0f	; 15
      0005AA 08                    3102 	.db #0x08	; 8
      0005AB 0F                    3103 	.db #0x0f	; 15
      0005AC 08                    3104 	.db #0x08	; 8
      0005AD 08                    3105 	.db #0x08	; 8
      0005AE 08                    3106 	.db #0x08	; 8
      0005AF 08                    3107 	.db #0x08	; 8
      0005B0 0A                    3108 	.db #0x0a	; 10
      0005B1 0A                    3109 	.db #0x0a	; 10
      0005B2 0A                    3110 	.db #0x0a	; 10
      0005B3 0B                    3111 	.db #0x0b	; 11
      0005B4 0A                    3112 	.db #0x0a	; 10
      0005B5 0A                    3113 	.db #0x0a	; 10
      0005B6 0A                    3114 	.db #0x0a	; 10
      0005B7 0A                    3115 	.db #0x0a	; 10
      0005B8 00                    3116 	.db #0x00	; 0
      0005B9 00                    3117 	.db #0x00	; 0
      0005BA 00                    3118 	.db #0x00	; 0
      0005BB 0F                    3119 	.db #0x0f	; 15
      0005BC 0A                    3120 	.db #0x0a	; 10
      0005BD 0A                    3121 	.db #0x0a	; 10
      0005BE 0A                    3122 	.db #0x0a	; 10
      0005BF 0A                    3123 	.db #0x0a	; 10
      0005C0 00                    3124 	.db #0x00	; 0
      0005C1 0F                    3125 	.db #0x0f	; 15
      0005C2 08                    3126 	.db #0x08	; 8
      0005C3 0F                    3127 	.db #0x0f	; 15
      0005C4 08                    3128 	.db #0x08	; 8
      0005C5 08                    3129 	.db #0x08	; 8
      0005C6 08                    3130 	.db #0x08	; 8
      0005C7 08                    3131 	.db #0x08	; 8
      0005C8 0A                    3132 	.db #0x0a	; 10
      0005C9 0B                    3133 	.db #0x0b	; 11
      0005CA 08                    3134 	.db #0x08	; 8
      0005CB 0B                    3135 	.db #0x0b	; 11
      0005CC 0A                    3136 	.db #0x0a	; 10
      0005CD 0A                    3137 	.db #0x0a	; 10
      0005CE 0A                    3138 	.db #0x0a	; 10
      0005CF 0A                    3139 	.db #0x0a	; 10
      0005D0 0A                    3140 	.db #0x0a	; 10
      0005D1 0A                    3141 	.db #0x0a	; 10
      0005D2 0A                    3142 	.db #0x0a	; 10
      0005D3 0A                    3143 	.db #0x0a	; 10
      0005D4 0A                    3144 	.db #0x0a	; 10
      0005D5 0A                    3145 	.db #0x0a	; 10
      0005D6 0A                    3146 	.db #0x0a	; 10
      0005D7 0A                    3147 	.db #0x0a	; 10
      0005D8 00                    3148 	.db #0x00	; 0
      0005D9 0F                    3149 	.db #0x0f	; 15
      0005DA 08                    3150 	.db #0x08	; 8
      0005DB 0B                    3151 	.db #0x0b	; 11
      0005DC 0A                    3152 	.db #0x0a	; 10
      0005DD 0A                    3153 	.db #0x0a	; 10
      0005DE 0A                    3154 	.db #0x0a	; 10
      0005DF 0A                    3155 	.db #0x0a	; 10
      0005E0 0A                    3156 	.db #0x0a	; 10
      0005E1 0B                    3157 	.db #0x0b	; 11
      0005E2 08                    3158 	.db #0x08	; 8
      0005E3 0F                    3159 	.db #0x0f	; 15
      0005E4 00                    3160 	.db #0x00	; 0
      0005E5 00                    3161 	.db #0x00	; 0
      0005E6 00                    3162 	.db #0x00	; 0
      0005E7 00                    3163 	.db #0x00	; 0
      0005E8 0A                    3164 	.db #0x0a	; 10
      0005E9 0A                    3165 	.db #0x0a	; 10
      0005EA 0A                    3166 	.db #0x0a	; 10
      0005EB 0F                    3167 	.db #0x0f	; 15
      0005EC 00                    3168 	.db #0x00	; 0
      0005ED 00                    3169 	.db #0x00	; 0
      0005EE 00                    3170 	.db #0x00	; 0
      0005EF 00                    3171 	.db #0x00	; 0
      0005F0 08                    3172 	.db #0x08	; 8
      0005F1 0F                    3173 	.db #0x0f	; 15
      0005F2 08                    3174 	.db #0x08	; 8
      0005F3 0F                    3175 	.db #0x0f	; 15
      0005F4 00                    3176 	.db #0x00	; 0
      0005F5 00                    3177 	.db #0x00	; 0
      0005F6 00                    3178 	.db #0x00	; 0
      0005F7 00                    3179 	.db #0x00	; 0
      0005F8 00                    3180 	.db #0x00	; 0
      0005F9 00                    3181 	.db #0x00	; 0
      0005FA 00                    3182 	.db #0x00	; 0
      0005FB 0F                    3183 	.db #0x0f	; 15
      0005FC 08                    3184 	.db #0x08	; 8
      0005FD 08                    3185 	.db #0x08	; 8
      0005FE 08                    3186 	.db #0x08	; 8
      0005FF 08                    3187 	.db #0x08	; 8
      000600 08                    3188 	.db #0x08	; 8
      000601 08                    3189 	.db #0x08	; 8
      000602 08                    3190 	.db #0x08	; 8
      000603 38                    3191 	.db #0x38	; 56	'8'
      000604 00                    3192 	.db #0x00	; 0
      000605 00                    3193 	.db #0x00	; 0
      000606 00                    3194 	.db #0x00	; 0
      000607 00                    3195 	.db #0x00	; 0
      000608 08                    3196 	.db #0x08	; 8
      000609 08                    3197 	.db #0x08	; 8
      00060A 08                    3198 	.db #0x08	; 8
      00060B 3F                    3199 	.db #0x3f	; 63
      00060C 00                    3200 	.db #0x00	; 0
      00060D 00                    3201 	.db #0x00	; 0
      00060E 00                    3202 	.db #0x00	; 0
      00060F 00                    3203 	.db #0x00	; 0
      000610 00                    3204 	.db #0x00	; 0
      000611 00                    3205 	.db #0x00	; 0
      000612 00                    3206 	.db #0x00	; 0
      000613 3F                    3207 	.db #0x3f	; 63
      000614 08                    3208 	.db #0x08	; 8
      000615 08                    3209 	.db #0x08	; 8
      000616 08                    3210 	.db #0x08	; 8
      000617 08                    3211 	.db #0x08	; 8
      000618 08                    3212 	.db #0x08	; 8
      000619 08                    3213 	.db #0x08	; 8
      00061A 08                    3214 	.db #0x08	; 8
      00061B 38                    3215 	.db #0x38	; 56	'8'
      00061C 08                    3216 	.db #0x08	; 8
      00061D 08                    3217 	.db #0x08	; 8
      00061E 08                    3218 	.db #0x08	; 8
      00061F 08                    3219 	.db #0x08	; 8
      000620 00                    3220 	.db #0x00	; 0
      000621 00                    3221 	.db #0x00	; 0
      000622 00                    3222 	.db #0x00	; 0
      000623 3F                    3223 	.db #0x3f	; 63
      000624 00                    3224 	.db #0x00	; 0
      000625 00                    3225 	.db #0x00	; 0
      000626 00                    3226 	.db #0x00	; 0
      000627 00                    3227 	.db #0x00	; 0
      000628 08                    3228 	.db #0x08	; 8
      000629 08                    3229 	.db #0x08	; 8
      00062A 08                    3230 	.db #0x08	; 8
      00062B 3F                    3231 	.db #0x3f	; 63
      00062C 08                    3232 	.db #0x08	; 8
      00062D 08                    3233 	.db #0x08	; 8
      00062E 08                    3234 	.db #0x08	; 8
      00062F 08                    3235 	.db #0x08	; 8
      000630 08                    3236 	.db #0x08	; 8
      000631 38                    3237 	.db #0x38	; 56	'8'
      000632 08                    3238 	.db #0x08	; 8
      000633 38                    3239 	.db #0x38	; 56	'8'
      000634 08                    3240 	.db #0x08	; 8
      000635 08                    3241 	.db #0x08	; 8
      000636 08                    3242 	.db #0x08	; 8
      000637 08                    3243 	.db #0x08	; 8
      000638 0A                    3244 	.db #0x0a	; 10
      000639 0A                    3245 	.db #0x0a	; 10
      00063A 0A                    3246 	.db #0x0a	; 10
      00063B 3A                    3247 	.db #0x3a	; 58
      00063C 0A                    3248 	.db #0x0a	; 10
      00063D 0A                    3249 	.db #0x0a	; 10
      00063E 0A                    3250 	.db #0x0a	; 10
      00063F 0A                    3251 	.db #0x0a	; 10
      000640 0A                    3252 	.db #0x0a	; 10
      000641 3A                    3253 	.db #0x3a	; 58
      000642 02                    3254 	.db #0x02	; 2
      000643 3E                    3255 	.db #0x3e	; 62
      000644 00                    3256 	.db #0x00	; 0
      000645 00                    3257 	.db #0x00	; 0
      000646 00                    3258 	.db #0x00	; 0
      000647 00                    3259 	.db #0x00	; 0
      000648 00                    3260 	.db #0x00	; 0
      000649 3E                    3261 	.db #0x3e	; 62
      00064A 02                    3262 	.db #0x02	; 2
      00064B 3A                    3263 	.db #0x3a	; 58
      00064C 0A                    3264 	.db #0x0a	; 10
      00064D 0A                    3265 	.db #0x0a	; 10
      00064E 0A                    3266 	.db #0x0a	; 10
      00064F 0A                    3267 	.db #0x0a	; 10
      000650 0A                    3268 	.db #0x0a	; 10
      000651 3B                    3269 	.db #0x3b	; 59
      000652 00                    3270 	.db #0x00	; 0
      000653 3F                    3271 	.db #0x3f	; 63
      000654 00                    3272 	.db #0x00	; 0
      000655 00                    3273 	.db #0x00	; 0
      000656 00                    3274 	.db #0x00	; 0
      000657 00                    3275 	.db #0x00	; 0
      000658 00                    3276 	.db #0x00	; 0
      000659 3F                    3277 	.db #0x3f	; 63
      00065A 00                    3278 	.db #0x00	; 0
      00065B 3B                    3279 	.db #0x3b	; 59
      00065C 0A                    3280 	.db #0x0a	; 10
      00065D 0A                    3281 	.db #0x0a	; 10
      00065E 0A                    3282 	.db #0x0a	; 10
      00065F 0A                    3283 	.db #0x0a	; 10
      000660 0A                    3284 	.db #0x0a	; 10
      000661 3A                    3285 	.db #0x3a	; 58
      000662 02                    3286 	.db #0x02	; 2
      000663 3A                    3287 	.db #0x3a	; 58
      000664 0A                    3288 	.db #0x0a	; 10
      000665 0A                    3289 	.db #0x0a	; 10
      000666 0A                    3290 	.db #0x0a	; 10
      000667 0A                    3291 	.db #0x0a	; 10
      000668 00                    3292 	.db #0x00	; 0
      000669 3F                    3293 	.db #0x3f	; 63
      00066A 00                    3294 	.db #0x00	; 0
      00066B 3F                    3295 	.db #0x3f	; 63
      00066C 00                    3296 	.db #0x00	; 0
      00066D 00                    3297 	.db #0x00	; 0
      00066E 00                    3298 	.db #0x00	; 0
      00066F 00                    3299 	.db #0x00	; 0
      000670 0A                    3300 	.db #0x0a	; 10
      000671 3B                    3301 	.db #0x3b	; 59
      000672 00                    3302 	.db #0x00	; 0
      000673 3B                    3303 	.db #0x3b	; 59
      000674 0A                    3304 	.db #0x0a	; 10
      000675 0A                    3305 	.db #0x0a	; 10
      000676 0A                    3306 	.db #0x0a	; 10
      000677 0A                    3307 	.db #0x0a	; 10
      000678 08                    3308 	.db #0x08	; 8
      000679 3F                    3309 	.db #0x3f	; 63
      00067A 00                    3310 	.db #0x00	; 0
      00067B 3F                    3311 	.db #0x3f	; 63
      00067C 00                    3312 	.db #0x00	; 0
      00067D 00                    3313 	.db #0x00	; 0
      00067E 00                    3314 	.db #0x00	; 0
      00067F 00                    3315 	.db #0x00	; 0
      000680 0A                    3316 	.db #0x0a	; 10
      000681 0A                    3317 	.db #0x0a	; 10
      000682 0A                    3318 	.db #0x0a	; 10
      000683 3F                    3319 	.db #0x3f	; 63
      000684 00                    3320 	.db #0x00	; 0
      000685 00                    3321 	.db #0x00	; 0
      000686 00                    3322 	.db #0x00	; 0
      000687 00                    3323 	.db #0x00	; 0
      000688 00                    3324 	.db #0x00	; 0
      000689 3F                    3325 	.db #0x3f	; 63
      00068A 00                    3326 	.db #0x00	; 0
      00068B 3F                    3327 	.db #0x3f	; 63
      00068C 08                    3328 	.db #0x08	; 8
      00068D 08                    3329 	.db #0x08	; 8
      00068E 08                    3330 	.db #0x08	; 8
      00068F 08                    3331 	.db #0x08	; 8
      000690 00                    3332 	.db #0x00	; 0
      000691 00                    3333 	.db #0x00	; 0
      000692 00                    3334 	.db #0x00	; 0
      000693 3F                    3335 	.db #0x3f	; 63
      000694 0A                    3336 	.db #0x0a	; 10
      000695 0A                    3337 	.db #0x0a	; 10
      000696 0A                    3338 	.db #0x0a	; 10
      000697 0A                    3339 	.db #0x0a	; 10
      000698 0A                    3340 	.db #0x0a	; 10
      000699 0A                    3341 	.db #0x0a	; 10
      00069A 0A                    3342 	.db #0x0a	; 10
      00069B 3E                    3343 	.db #0x3e	; 62
      00069C 00                    3344 	.db #0x00	; 0
      00069D 00                    3345 	.db #0x00	; 0
      00069E 00                    3346 	.db #0x00	; 0
      00069F 00                    3347 	.db #0x00	; 0
      0006A0 08                    3348 	.db #0x08	; 8
      0006A1 38                    3349 	.db #0x38	; 56	'8'
      0006A2 08                    3350 	.db #0x08	; 8
      0006A3 38                    3351 	.db #0x38	; 56	'8'
      0006A4 00                    3352 	.db #0x00	; 0
      0006A5 00                    3353 	.db #0x00	; 0
      0006A6 00                    3354 	.db #0x00	; 0
      0006A7 00                    3355 	.db #0x00	; 0
      0006A8 00                    3356 	.db #0x00	; 0
      0006A9 38                    3357 	.db #0x38	; 56	'8'
      0006AA 08                    3358 	.db #0x08	; 8
      0006AB 38                    3359 	.db #0x38	; 56	'8'
      0006AC 08                    3360 	.db #0x08	; 8
      0006AD 08                    3361 	.db #0x08	; 8
      0006AE 08                    3362 	.db #0x08	; 8
      0006AF 08                    3363 	.db #0x08	; 8
      0006B0 00                    3364 	.db #0x00	; 0
      0006B1 00                    3365 	.db #0x00	; 0
      0006B2 00                    3366 	.db #0x00	; 0
      0006B3 3E                    3367 	.db #0x3e	; 62
      0006B4 0A                    3368 	.db #0x0a	; 10
      0006B5 0A                    3369 	.db #0x0a	; 10
      0006B6 0A                    3370 	.db #0x0a	; 10
      0006B7 0A                    3371 	.db #0x0a	; 10
      0006B8 0A                    3372 	.db #0x0a	; 10
      0006B9 0A                    3373 	.db #0x0a	; 10
      0006BA 0A                    3374 	.db #0x0a	; 10
      0006BB 3B                    3375 	.db #0x3b	; 59
      0006BC 0A                    3376 	.db #0x0a	; 10
      0006BD 0A                    3377 	.db #0x0a	; 10
      0006BE 0A                    3378 	.db #0x0a	; 10
      0006BF 0A                    3379 	.db #0x0a	; 10
      0006C0 08                    3380 	.db #0x08	; 8
      0006C1 3F                    3381 	.db #0x3f	; 63
      0006C2 00                    3382 	.db #0x00	; 0
      0006C3 3F                    3383 	.db #0x3f	; 63
      0006C4 08                    3384 	.db #0x08	; 8
      0006C5 08                    3385 	.db #0x08	; 8
      0006C6 08                    3386 	.db #0x08	; 8
      0006C7 08                    3387 	.db #0x08	; 8
      0006C8 08                    3388 	.db #0x08	; 8
      0006C9 08                    3389 	.db #0x08	; 8
      0006CA 08                    3390 	.db #0x08	; 8
      0006CB 0F                    3391 	.db #0x0f	; 15
      0006CC 00                    3392 	.db #0x00	; 0
      0006CD 00                    3393 	.db #0x00	; 0
      0006CE 00                    3394 	.db #0x00	; 0
      0006CF 00                    3395 	.db #0x00	; 0
      0006D0 00                    3396 	.db #0x00	; 0
      0006D1 00                    3397 	.db #0x00	; 0
      0006D2 00                    3398 	.db #0x00	; 0
      0006D3 38                    3399 	.db #0x38	; 56	'8'
      0006D4 08                    3400 	.db #0x08	; 8
      0006D5 08                    3401 	.db #0x08	; 8
      0006D6 08                    3402 	.db #0x08	; 8
      0006D7 08                    3403 	.db #0x08	; 8
      0006D8 3F                    3404 	.db #0x3f	; 63
      0006D9 3F                    3405 	.db #0x3f	; 63
      0006DA 3F                    3406 	.db #0x3f	; 63
      0006DB 3F                    3407 	.db #0x3f	; 63
      0006DC 3F                    3408 	.db #0x3f	; 63
      0006DD 3F                    3409 	.db #0x3f	; 63
      0006DE 3F                    3410 	.db #0x3f	; 63
      0006DF 3F                    3411 	.db #0x3f	; 63
      0006E0 00                    3412 	.db #0x00	; 0
      0006E1 00                    3413 	.db #0x00	; 0
      0006E2 00                    3414 	.db #0x00	; 0
      0006E3 00                    3415 	.db #0x00	; 0
      0006E4 3F                    3416 	.db #0x3f	; 63
      0006E5 3F                    3417 	.db #0x3f	; 63
      0006E6 3F                    3418 	.db #0x3f	; 63
      0006E7 3F                    3419 	.db #0x3f	; 63
      0006E8 07                    3420 	.db #0x07	; 7
      0006E9 07                    3421 	.db #0x07	; 7
      0006EA 07                    3422 	.db #0x07	; 7
      0006EB 07                    3423 	.db #0x07	; 7
      0006EC 07                    3424 	.db #0x07	; 7
      0006ED 07                    3425 	.db #0x07	; 7
      0006EE 07                    3426 	.db #0x07	; 7
      0006EF 07                    3427 	.db #0x07	; 7
      0006F0 38                    3428 	.db #0x38	; 56	'8'
      0006F1 38                    3429 	.db #0x38	; 56	'8'
      0006F2 38                    3430 	.db #0x38	; 56	'8'
      0006F3 38                    3431 	.db #0x38	; 56	'8'
      0006F4 38                    3432 	.db #0x38	; 56	'8'
      0006F5 38                    3433 	.db #0x38	; 56	'8'
      0006F6 38                    3434 	.db #0x38	; 56	'8'
      0006F7 38                    3435 	.db #0x38	; 56	'8'
      0006F8 3F                    3436 	.db #0x3f	; 63
      0006F9 3F                    3437 	.db #0x3f	; 63
      0006FA 3F                    3438 	.db #0x3f	; 63
      0006FB 3F                    3439 	.db #0x3f	; 63
      0006FC 00                    3440 	.db #0x00	; 0
      0006FD 00                    3441 	.db #0x00	; 0
      0006FE 00                    3442 	.db #0x00	; 0
      0006FF 00                    3443 	.db #0x00	; 0
      000700 00                    3444 	.db #0x00	; 0
      000701 00                    3445 	.db #0x00	; 0
      000702 2C                    3446 	.db #0x2c	; 44
      000703 12                    3447 	.db #0x12	; 18
      000704 12                    3448 	.db #0x12	; 18
      000705 2C                    3449 	.db #0x2c	; 44
      000706 00                    3450 	.db #0x00	; 0
      000707 00                    3451 	.db #0x00	; 0
      000708 00                    3452 	.db #0x00	; 0
      000709 0E                    3453 	.db #0x0e	; 14
      00070A 12                    3454 	.db #0x12	; 18
      00070B 0E                    3455 	.db #0x0e	; 14
      00070C 12                    3456 	.db #0x12	; 18
      00070D 12                    3457 	.db #0x12	; 18
      00070E 0E                    3458 	.db #0x0e	; 14
      00070F 02                    3459 	.db #0x02	; 2
      000710 1E                    3460 	.db #0x1e	; 30
      000711 12                    3461 	.db #0x12	; 18
      000712 02                    3462 	.db #0x02	; 2
      000713 02                    3463 	.db #0x02	; 2
      000714 02                    3464 	.db #0x02	; 2
      000715 02                    3465 	.db #0x02	; 2
      000716 02                    3466 	.db #0x02	; 2
      000717 00                    3467 	.db #0x00	; 0
      000718 00                    3468 	.db #0x00	; 0
      000719 3E                    3469 	.db #0x3e	; 62
      00071A 14                    3470 	.db #0x14	; 20
      00071B 14                    3471 	.db #0x14	; 20
      00071C 14                    3472 	.db #0x14	; 20
      00071D 14                    3473 	.db #0x14	; 20
      00071E 14                    3474 	.db #0x14	; 20
      00071F 00                    3475 	.db #0x00	; 0
      000720 1E                    3476 	.db #0x1e	; 30
      000721 12                    3477 	.db #0x12	; 18
      000722 04                    3478 	.db #0x04	; 4
      000723 08                    3479 	.db #0x08	; 8
      000724 04                    3480 	.db #0x04	; 4
      000725 12                    3481 	.db #0x12	; 18
      000726 1E                    3482 	.db #0x1e	; 30
      000727 00                    3483 	.db #0x00	; 0
      000728 00                    3484 	.db #0x00	; 0
      000729 00                    3485 	.db #0x00	; 0
      00072A 3C                    3486 	.db #0x3c	; 60
      00072B 12                    3487 	.db #0x12	; 18
      00072C 12                    3488 	.db #0x12	; 18
      00072D 0C                    3489 	.db #0x0c	; 12
      00072E 00                    3490 	.db #0x00	; 0
      00072F 00                    3491 	.db #0x00	; 0
      000730 00                    3492 	.db #0x00	; 0
      000731 00                    3493 	.db #0x00	; 0
      000732 12                    3494 	.db #0x12	; 18
      000733 12                    3495 	.db #0x12	; 18
      000734 12                    3496 	.db #0x12	; 18
      000735 0E                    3497 	.db #0x0e	; 14
      000736 02                    3498 	.db #0x02	; 2
      000737 02                    3499 	.db #0x02	; 2
      000738 00                    3500 	.db #0x00	; 0
      000739 00                    3501 	.db #0x00	; 0
      00073A 14                    3502 	.db #0x14	; 20
      00073B 0A                    3503 	.db #0x0a	; 10
      00073C 08                    3504 	.db #0x08	; 8
      00073D 08                    3505 	.db #0x08	; 8
      00073E 08                    3506 	.db #0x08	; 8
      00073F 00                    3507 	.db #0x00	; 0
      000740 1C                    3508 	.db #0x1c	; 28
      000741 08                    3509 	.db #0x08	; 8
      000742 1C                    3510 	.db #0x1c	; 28
      000743 22                    3511 	.db #0x22	; 34
      000744 1C                    3512 	.db #0x1c	; 28
      000745 08                    3513 	.db #0x08	; 8
      000746 1C                    3514 	.db #0x1c	; 28
      000747 00                    3515 	.db #0x00	; 0
      000748 0C                    3516 	.db #0x0c	; 12
      000749 12                    3517 	.db #0x12	; 18
      00074A 12                    3518 	.db #0x12	; 18
      00074B 1E                    3519 	.db #0x1e	; 30
      00074C 12                    3520 	.db #0x12	; 18
      00074D 12                    3521 	.db #0x12	; 18
      00074E 0C                    3522 	.db #0x0c	; 12
      00074F 00                    3523 	.db #0x00	; 0
      000750 00                    3524 	.db #0x00	; 0
      000751 1C                    3525 	.db #0x1c	; 28
      000752 22                    3526 	.db #0x22	; 34
      000753 22                    3527 	.db #0x22	; 34
      000754 14                    3528 	.db #0x14	; 20
      000755 14                    3529 	.db #0x14	; 20
      000756 36                    3530 	.db #0x36	; 54	'6'
      000757 00                    3531 	.db #0x00	; 0
      000758 0C                    3532 	.db #0x0c	; 12
      000759 02                    3533 	.db #0x02	; 2
      00075A 04                    3534 	.db #0x04	; 4
      00075B 08                    3535 	.db #0x08	; 8
      00075C 1C                    3536 	.db #0x1c	; 28
      00075D 12                    3537 	.db #0x12	; 18
      00075E 0C                    3538 	.db #0x0c	; 12
      00075F 00                    3539 	.db #0x00	; 0
      000760 00                    3540 	.db #0x00	; 0
      000761 00                    3541 	.db #0x00	; 0
      000762 14                    3542 	.db #0x14	; 20
      000763 2A                    3543 	.db #0x2a	; 42
      000764 2A                    3544 	.db #0x2a	; 42
      000765 14                    3545 	.db #0x14	; 20
      000766 00                    3546 	.db #0x00	; 0
      000767 00                    3547 	.db #0x00	; 0
      000768 00                    3548 	.db #0x00	; 0
      000769 08                    3549 	.db #0x08	; 8
      00076A 1C                    3550 	.db #0x1c	; 28
      00076B 2A                    3551 	.db #0x2a	; 42
      00076C 2A                    3552 	.db #0x2a	; 42
      00076D 1C                    3553 	.db #0x1c	; 28
      00076E 08                    3554 	.db #0x08	; 8
      00076F 00                    3555 	.db #0x00	; 0
      000770 00                    3556 	.db #0x00	; 0
      000771 1C                    3557 	.db #0x1c	; 28
      000772 02                    3558 	.db #0x02	; 2
      000773 1E                    3559 	.db #0x1e	; 30
      000774 02                    3560 	.db #0x02	; 2
      000775 1C                    3561 	.db #0x1c	; 28
      000776 00                    3562 	.db #0x00	; 0
      000777 00                    3563 	.db #0x00	; 0
      000778 00                    3564 	.db #0x00	; 0
      000779 0C                    3565 	.db #0x0c	; 12
      00077A 12                    3566 	.db #0x12	; 18
      00077B 12                    3567 	.db #0x12	; 18
      00077C 12                    3568 	.db #0x12	; 18
      00077D 12                    3569 	.db #0x12	; 18
      00077E 00                    3570 	.db #0x00	; 0
      00077F 00                    3571 	.db #0x00	; 0
      000780 00                    3572 	.db #0x00	; 0
      000781 1E                    3573 	.db #0x1e	; 30
      000782 00                    3574 	.db #0x00	; 0
      000783 1E                    3575 	.db #0x1e	; 30
      000784 00                    3576 	.db #0x00	; 0
      000785 1E                    3577 	.db #0x1e	; 30
      000786 00                    3578 	.db #0x00	; 0
      000787 00                    3579 	.db #0x00	; 0
      000788 00                    3580 	.db #0x00	; 0
      000789 08                    3581 	.db #0x08	; 8
      00078A 1C                    3582 	.db #0x1c	; 28
      00078B 08                    3583 	.db #0x08	; 8
      00078C 00                    3584 	.db #0x00	; 0
      00078D 1C                    3585 	.db #0x1c	; 28
      00078E 00                    3586 	.db #0x00	; 0
      00078F 00                    3587 	.db #0x00	; 0
      000790 02                    3588 	.db #0x02	; 2
      000791 0C                    3589 	.db #0x0c	; 12
      000792 10                    3590 	.db #0x10	; 16
      000793 0C                    3591 	.db #0x0c	; 12
      000794 02                    3592 	.db #0x02	; 2
      000795 00                    3593 	.db #0x00	; 0
      000796 1E                    3594 	.db #0x1e	; 30
      000797 00                    3595 	.db #0x00	; 0
      000798 10                    3596 	.db #0x10	; 16
      000799 0C                    3597 	.db #0x0c	; 12
      00079A 02                    3598 	.db #0x02	; 2
      00079B 0C                    3599 	.db #0x0c	; 12
      00079C 10                    3600 	.db #0x10	; 16
      00079D 00                    3601 	.db #0x00	; 0
      00079E 1E                    3602 	.db #0x1e	; 30
      00079F 00                    3603 	.db #0x00	; 0
      0007A0 00                    3604 	.db #0x00	; 0
      0007A1 10                    3605 	.db #0x10	; 16
      0007A2 28                    3606 	.db #0x28	; 40
      0007A3 08                    3607 	.db #0x08	; 8
      0007A4 08                    3608 	.db #0x08	; 8
      0007A5 08                    3609 	.db #0x08	; 8
      0007A6 08                    3610 	.db #0x08	; 8
      0007A7 08                    3611 	.db #0x08	; 8
      0007A8 08                    3612 	.db #0x08	; 8
      0007A9 08                    3613 	.db #0x08	; 8
      0007AA 08                    3614 	.db #0x08	; 8
      0007AB 08                    3615 	.db #0x08	; 8
      0007AC 08                    3616 	.db #0x08	; 8
      0007AD 0A                    3617 	.db #0x0a	; 10
      0007AE 04                    3618 	.db #0x04	; 4
      0007AF 00                    3619 	.db #0x00	; 0
      0007B0 00                    3620 	.db #0x00	; 0
      0007B1 08                    3621 	.db #0x08	; 8
      0007B2 00                    3622 	.db #0x00	; 0
      0007B3 3E                    3623 	.db #0x3e	; 62
      0007B4 00                    3624 	.db #0x00	; 0
      0007B5 08                    3625 	.db #0x08	; 8
      0007B6 00                    3626 	.db #0x00	; 0
      0007B7 00                    3627 	.db #0x00	; 0
      0007B8 00                    3628 	.db #0x00	; 0
      0007B9 14                    3629 	.db #0x14	; 20
      0007BA 0A                    3630 	.db #0x0a	; 10
      0007BB 00                    3631 	.db #0x00	; 0
      0007BC 14                    3632 	.db #0x14	; 20
      0007BD 0A                    3633 	.db #0x0a	; 10
      0007BE 00                    3634 	.db #0x00	; 0
      0007BF 00                    3635 	.db #0x00	; 0
      0007C0 0C                    3636 	.db #0x0c	; 12
      0007C1 12                    3637 	.db #0x12	; 18
      0007C2 12                    3638 	.db #0x12	; 18
      0007C3 0C                    3639 	.db #0x0c	; 12
      0007C4 00                    3640 	.db #0x00	; 0
      0007C5 00                    3641 	.db #0x00	; 0
      0007C6 00                    3642 	.db #0x00	; 0
      0007C7 00                    3643 	.db #0x00	; 0
      0007C8 00                    3644 	.db #0x00	; 0
      0007C9 00                    3645 	.db #0x00	; 0
      0007CA 00                    3646 	.db #0x00	; 0
      0007CB 0C                    3647 	.db #0x0c	; 12
      0007CC 0C                    3648 	.db #0x0c	; 12
      0007CD 00                    3649 	.db #0x00	; 0
      0007CE 00                    3650 	.db #0x00	; 0
      0007CF 00                    3651 	.db #0x00	; 0
      0007D0 00                    3652 	.db #0x00	; 0
      0007D1 00                    3653 	.db #0x00	; 0
      0007D2 00                    3654 	.db #0x00	; 0
      0007D3 04                    3655 	.db #0x04	; 4
      0007D4 00                    3656 	.db #0x00	; 0
      0007D5 00                    3657 	.db #0x00	; 0
      0007D6 00                    3658 	.db #0x00	; 0
      0007D7 00                    3659 	.db #0x00	; 0
      0007D8 00                    3660 	.db #0x00	; 0
      0007D9 38                    3661 	.db #0x38	; 56	'8'
      0007DA 08                    3662 	.db #0x08	; 8
      0007DB 08                    3663 	.db #0x08	; 8
      0007DC 0A                    3664 	.db #0x0a	; 10
      0007DD 0A                    3665 	.db #0x0a	; 10
      0007DE 04                    3666 	.db #0x04	; 4
      0007DF 00                    3667 	.db #0x00	; 0
      0007E0 0A                    3668 	.db #0x0a	; 10
      0007E1 14                    3669 	.db #0x14	; 20
      0007E2 14                    3670 	.db #0x14	; 20
      0007E3 14                    3671 	.db #0x14	; 20
      0007E4 00                    3672 	.db #0x00	; 0
      0007E5 00                    3673 	.db #0x00	; 0
      0007E6 00                    3674 	.db #0x00	; 0
      0007E7 00                    3675 	.db #0x00	; 0
      0007E8 06                    3676 	.db #0x06	; 6
      0007E9 08                    3677 	.db #0x08	; 8
      0007EA 04                    3678 	.db #0x04	; 4
      0007EB 0E                    3679 	.db #0x0e	; 14
      0007EC 00                    3680 	.db #0x00	; 0
      0007ED 00                    3681 	.db #0x00	; 0
      0007EE 00                    3682 	.db #0x00	; 0
      0007EF 00                    3683 	.db #0x00	; 0
      0007F0 00                    3684 	.db #0x00	; 0
      0007F1 00                    3685 	.db #0x00	; 0
      0007F2 1E                    3686 	.db #0x1e	; 30
      0007F3 1E                    3687 	.db #0x1e	; 30
      0007F4 1E                    3688 	.db #0x1e	; 30
      0007F5 1E                    3689 	.db #0x1e	; 30
      0007F6 00                    3690 	.db #0x00	; 0
      0007F7 00                    3691 	.db #0x00	; 0
      0007F8 00                    3692 	.db #0x00	; 0
      0007F9 00                    3693 	.db #0x00	; 0
      0007FA 00                    3694 	.db #0x00	; 0
      0007FB 00                    3695 	.db #0x00	; 0
      0007FC 00                    3696 	.db #0x00	; 0
      0007FD 00                    3697 	.db #0x00	; 0
      0007FE 00                    3698 	.db #0x00	; 0
      0007FF 00                    3699 	.db #0x00	; 0
      000800                       3700 __xinit__initial:
      000800r49s00 80              3701 	.byte ___str_8, (___str_8 >> 8),#0x80
                                   3702 	.area CABS    (ABS,CODE)
